	.section	__TEXT,__text,regular,pure_instructions
	.macosx_version_min 10, 10
	.section	__TEXT,__StaticInit,regular,pure_instructions
	.align	4, 0x90
___cxx_global_var_init:                 ## @__cxx_global_var_init
	.cfi_startproc
## BB#0:
	pushq	%rbp
Ltmp0:
	.cfi_def_cfa_offset 16
Ltmp1:
	.cfi_offset %rbp, -16
	movq	%rsp, %rbp
Ltmp2:
	.cfi_def_cfa_register %rbp
	leaq	__ZN5boost6fusionL6unusedE(%rip), %rdi
	callq	__ZN5boost6fusion11unused_typeC1Ev
	popq	%rbp
	retq
	.cfi_endproc

	.section	__TEXT,__textcoal_nt,coalesced,pure_instructions
	.globl	__ZN5boost6fusion11unused_typeC1Ev
	.weak_def_can_be_hidden	__ZN5boost6fusion11unused_typeC1Ev
	.align	4, 0x90
__ZN5boost6fusion11unused_typeC1Ev:     ## @_ZN5boost6fusion11unused_typeC1Ev
	.cfi_startproc
## BB#0:
	pushq	%rbp
Ltmp3:
	.cfi_def_cfa_offset 16
Ltmp4:
	.cfi_offset %rbp, -16
	movq	%rsp, %rbp
Ltmp5:
	.cfi_def_cfa_register %rbp
	subq	$16, %rsp
	movq	%rdi, -8(%rbp)
	movq	-8(%rbp), %rdi
	callq	__ZN5boost6fusion11unused_typeC2Ev
	addq	$16, %rsp
	popq	%rbp
	retq
	.cfi_endproc

	.section	__TEXT,__StaticInit,regular,pure_instructions
	.align	4, 0x90
___cxx_global_var_init1:                ## @__cxx_global_var_init1
	.cfi_startproc
## BB#0:
	pushq	%rbp
Ltmp6:
	.cfi_def_cfa_offset 16
Ltmp7:
	.cfi_offset %rbp, -16
	movq	%rsp, %rbp
Ltmp8:
	.cfi_def_cfa_register %rbp
	leaq	__ZN5boost12_GLOBAL__N_17extentsE(%rip), %rdi
	callq	__ZN5boost6detail11multi_array10extent_genILm0EEC1Ev
	popq	%rbp
	retq
	.cfi_endproc

	.section	__TEXT,__textcoal_nt,coalesced,pure_instructions
	.globl	__ZN5boost6detail11multi_array10extent_genILm0EEC1Ev
	.weak_def_can_be_hidden	__ZN5boost6detail11multi_array10extent_genILm0EEC1Ev
	.align	4, 0x90
__ZN5boost6detail11multi_array10extent_genILm0EEC1Ev: ## @_ZN5boost6detail11multi_array10extent_genILm0EEC1Ev
	.cfi_startproc
## BB#0:
	pushq	%rbp
Ltmp9:
	.cfi_def_cfa_offset 16
Ltmp10:
	.cfi_offset %rbp, -16
	movq	%rsp, %rbp
Ltmp11:
	.cfi_def_cfa_register %rbp
	subq	$16, %rsp
	movq	%rdi, -8(%rbp)
	movq	-8(%rbp), %rdi
	callq	__ZN5boost6detail11multi_array10extent_genILm0EEC2Ev
	addq	$16, %rsp
	popq	%rbp
	retq
	.cfi_endproc

	.section	__TEXT,__StaticInit,regular,pure_instructions
	.align	4, 0x90
___cxx_global_var_init2:                ## @__cxx_global_var_init2
	.cfi_startproc
## BB#0:
	pushq	%rbp
Ltmp12:
	.cfi_def_cfa_offset 16
Ltmp13:
	.cfi_offset %rbp, -16
	movq	%rsp, %rbp
Ltmp14:
	.cfi_def_cfa_register %rbp
	leaq	__ZN5boost12_GLOBAL__N_17indicesE(%rip), %rdi
	callq	__ZN5boost6detail11multi_array9index_genILi0ELi0EEC1Ev
	popq	%rbp
	retq
	.cfi_endproc

	.section	__TEXT,__textcoal_nt,coalesced,pure_instructions
	.globl	__ZN5boost6detail11multi_array9index_genILi0ELi0EEC1Ev
	.weak_def_can_be_hidden	__ZN5boost6detail11multi_array9index_genILi0ELi0EEC1Ev
	.align	4, 0x90
__ZN5boost6detail11multi_array9index_genILi0ELi0EEC1Ev: ## @_ZN5boost6detail11multi_array9index_genILi0ELi0EEC1Ev
	.cfi_startproc
## BB#0:
	pushq	%rbp
Ltmp15:
	.cfi_def_cfa_offset 16
Ltmp16:
	.cfi_offset %rbp, -16
	movq	%rsp, %rbp
Ltmp17:
	.cfi_def_cfa_register %rbp
	subq	$16, %rsp
	movq	%rdi, -8(%rbp)
	movq	-8(%rbp), %rdi
	callq	__ZN5boost6detail11multi_array9index_genILi0ELi0EEC2Ev
	addq	$16, %rsp
	popq	%rbp
	retq
	.cfi_endproc

	.section	__TEXT,__StaticInit,regular,pure_instructions
	.align	4, 0x90
___cxx_global_var_init3:                ## @__cxx_global_var_init3
	.cfi_startproc
## BB#0:
	pushq	%rbp
Ltmp18:
	.cfi_def_cfa_offset 16
Ltmp19:
	.cfi_offset %rbp, -16
	movq	%rsp, %rbp
Ltmp20:
	.cfi_def_cfa_register %rbp
	leaq	__ZN4arma4fillL4noneE(%rip), %rdi
	callq	__ZN4arma4fill10fill_classINS0_9fill_noneEEC1Ev
	popq	%rbp
	retq
	.cfi_endproc

	.section	__TEXT,__textcoal_nt,coalesced,pure_instructions
	.globl	__ZN4arma4fill10fill_classINS0_9fill_noneEEC1Ev
	.weak_def_can_be_hidden	__ZN4arma4fill10fill_classINS0_9fill_noneEEC1Ev
	.align	4, 0x90
__ZN4arma4fill10fill_classINS0_9fill_noneEEC1Ev: ## @_ZN4arma4fill10fill_classINS0_9fill_noneEEC1Ev
	.cfi_startproc
## BB#0:
	pushq	%rbp
Ltmp21:
	.cfi_def_cfa_offset 16
Ltmp22:
	.cfi_offset %rbp, -16
	movq	%rsp, %rbp
Ltmp23:
	.cfi_def_cfa_register %rbp
	subq	$16, %rsp
	movq	%rdi, -8(%rbp)
	movq	-8(%rbp), %rdi
	callq	__ZN4arma4fill10fill_classINS0_9fill_noneEEC2Ev
	addq	$16, %rsp
	popq	%rbp
	retq
	.cfi_endproc

	.section	__TEXT,__StaticInit,regular,pure_instructions
	.align	4, 0x90
___cxx_global_var_init4:                ## @__cxx_global_var_init4
	.cfi_startproc
## BB#0:
	pushq	%rbp
Ltmp24:
	.cfi_def_cfa_offset 16
Ltmp25:
	.cfi_offset %rbp, -16
	movq	%rsp, %rbp
Ltmp26:
	.cfi_def_cfa_register %rbp
	leaq	__ZN4arma4fillL5zerosE(%rip), %rdi
	callq	__ZN4arma4fill10fill_classINS0_10fill_zerosEEC1Ev
	popq	%rbp
	retq
	.cfi_endproc

	.section	__TEXT,__textcoal_nt,coalesced,pure_instructions
	.globl	__ZN4arma4fill10fill_classINS0_10fill_zerosEEC1Ev
	.weak_def_can_be_hidden	__ZN4arma4fill10fill_classINS0_10fill_zerosEEC1Ev
	.align	4, 0x90
__ZN4arma4fill10fill_classINS0_10fill_zerosEEC1Ev: ## @_ZN4arma4fill10fill_classINS0_10fill_zerosEEC1Ev
	.cfi_startproc
## BB#0:
	pushq	%rbp
Ltmp27:
	.cfi_def_cfa_offset 16
Ltmp28:
	.cfi_offset %rbp, -16
	movq	%rsp, %rbp
Ltmp29:
	.cfi_def_cfa_register %rbp
	subq	$16, %rsp
	movq	%rdi, -8(%rbp)
	movq	-8(%rbp), %rdi
	callq	__ZN4arma4fill10fill_classINS0_10fill_zerosEEC2Ev
	addq	$16, %rsp
	popq	%rbp
	retq
	.cfi_endproc

	.section	__TEXT,__StaticInit,regular,pure_instructions
	.align	4, 0x90
___cxx_global_var_init5:                ## @__cxx_global_var_init5
	.cfi_startproc
## BB#0:
	pushq	%rbp
Ltmp30:
	.cfi_def_cfa_offset 16
Ltmp31:
	.cfi_offset %rbp, -16
	movq	%rsp, %rbp
Ltmp32:
	.cfi_def_cfa_register %rbp
	leaq	__ZN4arma4fillL4onesE(%rip), %rdi
	callq	__ZN4arma4fill10fill_classINS0_9fill_onesEEC1Ev
	popq	%rbp
	retq
	.cfi_endproc

	.section	__TEXT,__textcoal_nt,coalesced,pure_instructions
	.globl	__ZN4arma4fill10fill_classINS0_9fill_onesEEC1Ev
	.weak_def_can_be_hidden	__ZN4arma4fill10fill_classINS0_9fill_onesEEC1Ev
	.align	4, 0x90
__ZN4arma4fill10fill_classINS0_9fill_onesEEC1Ev: ## @_ZN4arma4fill10fill_classINS0_9fill_onesEEC1Ev
	.cfi_startproc
## BB#0:
	pushq	%rbp
Ltmp33:
	.cfi_def_cfa_offset 16
Ltmp34:
	.cfi_offset %rbp, -16
	movq	%rsp, %rbp
Ltmp35:
	.cfi_def_cfa_register %rbp
	subq	$16, %rsp
	movq	%rdi, -8(%rbp)
	movq	-8(%rbp), %rdi
	callq	__ZN4arma4fill10fill_classINS0_9fill_onesEEC2Ev
	addq	$16, %rsp
	popq	%rbp
	retq
	.cfi_endproc

	.section	__TEXT,__StaticInit,regular,pure_instructions
	.align	4, 0x90
___cxx_global_var_init6:                ## @__cxx_global_var_init6
	.cfi_startproc
## BB#0:
	pushq	%rbp
Ltmp36:
	.cfi_def_cfa_offset 16
Ltmp37:
	.cfi_offset %rbp, -16
	movq	%rsp, %rbp
Ltmp38:
	.cfi_def_cfa_register %rbp
	leaq	__ZN4arma4fillL3eyeE(%rip), %rdi
	callq	__ZN4arma4fill10fill_classINS0_8fill_eyeEEC1Ev
	popq	%rbp
	retq
	.cfi_endproc

	.section	__TEXT,__textcoal_nt,coalesced,pure_instructions
	.globl	__ZN4arma4fill10fill_classINS0_8fill_eyeEEC1Ev
	.weak_def_can_be_hidden	__ZN4arma4fill10fill_classINS0_8fill_eyeEEC1Ev
	.align	4, 0x90
__ZN4arma4fill10fill_classINS0_8fill_eyeEEC1Ev: ## @_ZN4arma4fill10fill_classINS0_8fill_eyeEEC1Ev
	.cfi_startproc
## BB#0:
	pushq	%rbp
Ltmp39:
	.cfi_def_cfa_offset 16
Ltmp40:
	.cfi_offset %rbp, -16
	movq	%rsp, %rbp
Ltmp41:
	.cfi_def_cfa_register %rbp
	subq	$16, %rsp
	movq	%rdi, -8(%rbp)
	movq	-8(%rbp), %rdi
	callq	__ZN4arma4fill10fill_classINS0_8fill_eyeEEC2Ev
	addq	$16, %rsp
	popq	%rbp
	retq
	.cfi_endproc

	.section	__TEXT,__StaticInit,regular,pure_instructions
	.align	4, 0x90
___cxx_global_var_init7:                ## @__cxx_global_var_init7
	.cfi_startproc
## BB#0:
	pushq	%rbp
Ltmp42:
	.cfi_def_cfa_offset 16
Ltmp43:
	.cfi_offset %rbp, -16
	movq	%rsp, %rbp
Ltmp44:
	.cfi_def_cfa_register %rbp
	leaq	__ZN4arma4fillL5randuE(%rip), %rdi
	callq	__ZN4arma4fill10fill_classINS0_10fill_randuEEC1Ev
	popq	%rbp
	retq
	.cfi_endproc

	.section	__TEXT,__textcoal_nt,coalesced,pure_instructions
	.globl	__ZN4arma4fill10fill_classINS0_10fill_randuEEC1Ev
	.weak_def_can_be_hidden	__ZN4arma4fill10fill_classINS0_10fill_randuEEC1Ev
	.align	4, 0x90
__ZN4arma4fill10fill_classINS0_10fill_randuEEC1Ev: ## @_ZN4arma4fill10fill_classINS0_10fill_randuEEC1Ev
	.cfi_startproc
## BB#0:
	pushq	%rbp
Ltmp45:
	.cfi_def_cfa_offset 16
Ltmp46:
	.cfi_offset %rbp, -16
	movq	%rsp, %rbp
Ltmp47:
	.cfi_def_cfa_register %rbp
	subq	$16, %rsp
	movq	%rdi, -8(%rbp)
	movq	-8(%rbp), %rdi
	callq	__ZN4arma4fill10fill_classINS0_10fill_randuEEC2Ev
	addq	$16, %rsp
	popq	%rbp
	retq
	.cfi_endproc

	.section	__TEXT,__StaticInit,regular,pure_instructions
	.align	4, 0x90
___cxx_global_var_init8:                ## @__cxx_global_var_init8
	.cfi_startproc
## BB#0:
	pushq	%rbp
Ltmp48:
	.cfi_def_cfa_offset 16
Ltmp49:
	.cfi_offset %rbp, -16
	movq	%rsp, %rbp
Ltmp50:
	.cfi_def_cfa_register %rbp
	leaq	__ZN4arma4fillL5randnE(%rip), %rdi
	callq	__ZN4arma4fill10fill_classINS0_10fill_randnEEC1Ev
	popq	%rbp
	retq
	.cfi_endproc

	.section	__TEXT,__textcoal_nt,coalesced,pure_instructions
	.globl	__ZN4arma4fill10fill_classINS0_10fill_randnEEC1Ev
	.weak_def_can_be_hidden	__ZN4arma4fill10fill_classINS0_10fill_randnEEC1Ev
	.align	4, 0x90
__ZN4arma4fill10fill_classINS0_10fill_randnEEC1Ev: ## @_ZN4arma4fill10fill_classINS0_10fill_randnEEC1Ev
	.cfi_startproc
## BB#0:
	pushq	%rbp
Ltmp51:
	.cfi_def_cfa_offset 16
Ltmp52:
	.cfi_offset %rbp, -16
	movq	%rsp, %rbp
Ltmp53:
	.cfi_def_cfa_register %rbp
	subq	$16, %rsp
	movq	%rdi, -8(%rbp)
	movq	-8(%rbp), %rdi
	callq	__ZN4arma4fill10fill_classINS0_10fill_randnEEC2Ev
	addq	$16, %rsp
	popq	%rbp
	retq
	.cfi_endproc

	.section	__TEXT,__StaticInit,regular,pure_instructions
	.align	4, 0x90
___cxx_global_var_init9:                ## @__cxx_global_var_init9
	.cfi_startproc
## BB#0:
	pushq	%rbp
Ltmp54:
	.cfi_def_cfa_offset 16
Ltmp55:
	.cfi_offset %rbp, -16
	movq	%rsp, %rbp
Ltmp56:
	.cfi_def_cfa_register %rbp
	leaq	__ZN4armaL9eucl_distE(%rip), %rdi
	callq	__ZN4arma13gmm_dist_euclC1Ev
	popq	%rbp
	retq
	.cfi_endproc

	.section	__TEXT,__textcoal_nt,coalesced,pure_instructions
	.globl	__ZN4arma13gmm_dist_euclC1Ev
	.weak_def_can_be_hidden	__ZN4arma13gmm_dist_euclC1Ev
	.align	4, 0x90
__ZN4arma13gmm_dist_euclC1Ev:           ## @_ZN4arma13gmm_dist_euclC1Ev
	.cfi_startproc
## BB#0:
	pushq	%rbp
Ltmp57:
	.cfi_def_cfa_offset 16
Ltmp58:
	.cfi_offset %rbp, -16
	movq	%rsp, %rbp
Ltmp59:
	.cfi_def_cfa_register %rbp
	subq	$16, %rsp
	movq	%rdi, -8(%rbp)
	movq	-8(%rbp), %rdi
	callq	__ZN4arma13gmm_dist_euclC2Ev
	addq	$16, %rsp
	popq	%rbp
	retq
	.cfi_endproc

	.section	__TEXT,__StaticInit,regular,pure_instructions
	.align	4, 0x90
___cxx_global_var_init10:               ## @__cxx_global_var_init10
	.cfi_startproc
## BB#0:
	pushq	%rbp
Ltmp60:
	.cfi_def_cfa_offset 16
Ltmp61:
	.cfi_offset %rbp, -16
	movq	%rsp, %rbp
Ltmp62:
	.cfi_def_cfa_register %rbp
	leaq	__ZN4armaL9maha_distE(%rip), %rdi
	callq	__ZN4arma13gmm_dist_mahaC1Ev
	popq	%rbp
	retq
	.cfi_endproc

	.section	__TEXT,__textcoal_nt,coalesced,pure_instructions
	.globl	__ZN4arma13gmm_dist_mahaC1Ev
	.weak_def_can_be_hidden	__ZN4arma13gmm_dist_mahaC1Ev
	.align	4, 0x90
__ZN4arma13gmm_dist_mahaC1Ev:           ## @_ZN4arma13gmm_dist_mahaC1Ev
	.cfi_startproc
## BB#0:
	pushq	%rbp
Ltmp63:
	.cfi_def_cfa_offset 16
Ltmp64:
	.cfi_offset %rbp, -16
	movq	%rsp, %rbp
Ltmp65:
	.cfi_def_cfa_register %rbp
	subq	$16, %rsp
	movq	%rdi, -8(%rbp)
	movq	-8(%rbp), %rdi
	callq	__ZN4arma13gmm_dist_mahaC2Ev
	addq	$16, %rsp
	popq	%rbp
	retq
	.cfi_endproc

	.section	__TEXT,__StaticInit,regular,pure_instructions
	.align	4, 0x90
___cxx_global_var_init11:               ## @__cxx_global_var_init11
	.cfi_startproc
## BB#0:
	pushq	%rbp
Ltmp66:
	.cfi_def_cfa_offset 16
Ltmp67:
	.cfi_offset %rbp, -16
	movq	%rsp, %rbp
Ltmp68:
	.cfi_def_cfa_register %rbp
	leaq	__ZN4armaL9prob_distE(%rip), %rdi
	callq	__ZN4arma13gmm_dist_probC1Ev
	popq	%rbp
	retq
	.cfi_endproc

	.section	__TEXT,__textcoal_nt,coalesced,pure_instructions
	.globl	__ZN4arma13gmm_dist_probC1Ev
	.weak_def_can_be_hidden	__ZN4arma13gmm_dist_probC1Ev
	.align	4, 0x90
__ZN4arma13gmm_dist_probC1Ev:           ## @_ZN4arma13gmm_dist_probC1Ev
	.cfi_startproc
## BB#0:
	pushq	%rbp
Ltmp69:
	.cfi_def_cfa_offset 16
Ltmp70:
	.cfi_offset %rbp, -16
	movq	%rsp, %rbp
Ltmp71:
	.cfi_def_cfa_register %rbp
	subq	$16, %rsp
	movq	%rdi, -8(%rbp)
	movq	-8(%rbp), %rdi
	callq	__ZN4arma13gmm_dist_probC2Ev
	addq	$16, %rsp
	popq	%rbp
	retq
	.cfi_endproc

	.section	__TEXT,__StaticInit,regular,pure_instructions
	.align	4, 0x90
___cxx_global_var_init12:               ## @__cxx_global_var_init12
	.cfi_startproc
## BB#0:
	pushq	%rbp
Ltmp72:
	.cfi_def_cfa_offset 16
Ltmp73:
	.cfi_offset %rbp, -16
	movq	%rsp, %rbp
Ltmp74:
	.cfi_def_cfa_register %rbp
	leaq	__ZN4armaL13keep_existingE(%rip), %rdi
	callq	__ZN4arma22gmm_seed_keep_existingC1Ev
	popq	%rbp
	retq
	.cfi_endproc

	.section	__TEXT,__textcoal_nt,coalesced,pure_instructions
	.globl	__ZN4arma22gmm_seed_keep_existingC1Ev
	.weak_def_can_be_hidden	__ZN4arma22gmm_seed_keep_existingC1Ev
	.align	4, 0x90
__ZN4arma22gmm_seed_keep_existingC1Ev:  ## @_ZN4arma22gmm_seed_keep_existingC1Ev
	.cfi_startproc
## BB#0:
	pushq	%rbp
Ltmp75:
	.cfi_def_cfa_offset 16
Ltmp76:
	.cfi_offset %rbp, -16
	movq	%rsp, %rbp
Ltmp77:
	.cfi_def_cfa_register %rbp
	subq	$16, %rsp
	movq	%rdi, -8(%rbp)
	movq	-8(%rbp), %rdi
	callq	__ZN4arma22gmm_seed_keep_existingC2Ev
	addq	$16, %rsp
	popq	%rbp
	retq
	.cfi_endproc

	.section	__TEXT,__StaticInit,regular,pure_instructions
	.align	4, 0x90
___cxx_global_var_init13:               ## @__cxx_global_var_init13
	.cfi_startproc
## BB#0:
	pushq	%rbp
Ltmp78:
	.cfi_def_cfa_offset 16
Ltmp79:
	.cfi_offset %rbp, -16
	movq	%rsp, %rbp
Ltmp80:
	.cfi_def_cfa_register %rbp
	leaq	__ZN4armaL13static_subsetE(%rip), %rdi
	callq	__ZN4arma22gmm_seed_static_subsetC1Ev
	popq	%rbp
	retq
	.cfi_endproc

	.section	__TEXT,__textcoal_nt,coalesced,pure_instructions
	.globl	__ZN4arma22gmm_seed_static_subsetC1Ev
	.weak_def_can_be_hidden	__ZN4arma22gmm_seed_static_subsetC1Ev
	.align	4, 0x90
__ZN4arma22gmm_seed_static_subsetC1Ev:  ## @_ZN4arma22gmm_seed_static_subsetC1Ev
	.cfi_startproc
## BB#0:
	pushq	%rbp
Ltmp81:
	.cfi_def_cfa_offset 16
Ltmp82:
	.cfi_offset %rbp, -16
	movq	%rsp, %rbp
Ltmp83:
	.cfi_def_cfa_register %rbp
	subq	$16, %rsp
	movq	%rdi, -8(%rbp)
	movq	-8(%rbp), %rdi
	callq	__ZN4arma22gmm_seed_static_subsetC2Ev
	addq	$16, %rsp
	popq	%rbp
	retq
	.cfi_endproc

	.section	__TEXT,__StaticInit,regular,pure_instructions
	.align	4, 0x90
___cxx_global_var_init14:               ## @__cxx_global_var_init14
	.cfi_startproc
## BB#0:
	pushq	%rbp
Ltmp84:
	.cfi_def_cfa_offset 16
Ltmp85:
	.cfi_offset %rbp, -16
	movq	%rsp, %rbp
Ltmp86:
	.cfi_def_cfa_register %rbp
	leaq	__ZN4armaL13static_spreadE(%rip), %rdi
	callq	__ZN4arma22gmm_seed_static_spreadC1Ev
	popq	%rbp
	retq
	.cfi_endproc

	.section	__TEXT,__textcoal_nt,coalesced,pure_instructions
	.globl	__ZN4arma22gmm_seed_static_spreadC1Ev
	.weak_def_can_be_hidden	__ZN4arma22gmm_seed_static_spreadC1Ev
	.align	4, 0x90
__ZN4arma22gmm_seed_static_spreadC1Ev:  ## @_ZN4arma22gmm_seed_static_spreadC1Ev
	.cfi_startproc
## BB#0:
	pushq	%rbp
Ltmp87:
	.cfi_def_cfa_offset 16
Ltmp88:
	.cfi_offset %rbp, -16
	movq	%rsp, %rbp
Ltmp89:
	.cfi_def_cfa_register %rbp
	subq	$16, %rsp
	movq	%rdi, -8(%rbp)
	movq	-8(%rbp), %rdi
	callq	__ZN4arma22gmm_seed_static_spreadC2Ev
	addq	$16, %rsp
	popq	%rbp
	retq
	.cfi_endproc

	.section	__TEXT,__StaticInit,regular,pure_instructions
	.align	4, 0x90
___cxx_global_var_init15:               ## @__cxx_global_var_init15
	.cfi_startproc
## BB#0:
	pushq	%rbp
Ltmp90:
	.cfi_def_cfa_offset 16
Ltmp91:
	.cfi_offset %rbp, -16
	movq	%rsp, %rbp
Ltmp92:
	.cfi_def_cfa_register %rbp
	leaq	__ZN4armaL13random_subsetE(%rip), %rdi
	callq	__ZN4arma22gmm_seed_random_subsetC1Ev
	popq	%rbp
	retq
	.cfi_endproc

	.section	__TEXT,__textcoal_nt,coalesced,pure_instructions
	.globl	__ZN4arma22gmm_seed_random_subsetC1Ev
	.weak_def_can_be_hidden	__ZN4arma22gmm_seed_random_subsetC1Ev
	.align	4, 0x90
__ZN4arma22gmm_seed_random_subsetC1Ev:  ## @_ZN4arma22gmm_seed_random_subsetC1Ev
	.cfi_startproc
## BB#0:
	pushq	%rbp
Ltmp93:
	.cfi_def_cfa_offset 16
Ltmp94:
	.cfi_offset %rbp, -16
	movq	%rsp, %rbp
Ltmp95:
	.cfi_def_cfa_register %rbp
	subq	$16, %rsp
	movq	%rdi, -8(%rbp)
	movq	-8(%rbp), %rdi
	callq	__ZN4arma22gmm_seed_random_subsetC2Ev
	addq	$16, %rsp
	popq	%rbp
	retq
	.cfi_endproc

	.section	__TEXT,__StaticInit,regular,pure_instructions
	.align	4, 0x90
___cxx_global_var_init16:               ## @__cxx_global_var_init16
	.cfi_startproc
## BB#0:
	pushq	%rbp
Ltmp96:
	.cfi_def_cfa_offset 16
Ltmp97:
	.cfi_offset %rbp, -16
	movq	%rsp, %rbp
Ltmp98:
	.cfi_def_cfa_register %rbp
	leaq	__ZN4armaL13random_spreadE(%rip), %rdi
	callq	__ZN4arma22gmm_seed_random_spreadC1Ev
	popq	%rbp
	retq
	.cfi_endproc

	.section	__TEXT,__textcoal_nt,coalesced,pure_instructions
	.globl	__ZN4arma22gmm_seed_random_spreadC1Ev
	.weak_def_can_be_hidden	__ZN4arma22gmm_seed_random_spreadC1Ev
	.align	4, 0x90
__ZN4arma22gmm_seed_random_spreadC1Ev:  ## @_ZN4arma22gmm_seed_random_spreadC1Ev
	.cfi_startproc
## BB#0:
	pushq	%rbp
Ltmp99:
	.cfi_def_cfa_offset 16
Ltmp100:
	.cfi_offset %rbp, -16
	movq	%rsp, %rbp
Ltmp101:
	.cfi_def_cfa_register %rbp
	subq	$16, %rsp
	movq	%rdi, -8(%rbp)
	movq	-8(%rbp), %rdi
	callq	__ZN4arma22gmm_seed_random_spreadC2Ev
	addq	$16, %rsp
	popq	%rbp
	retq
	.cfi_endproc

	.section	__TEXT,__StaticInit,regular,pure_instructions
	.align	4, 0x90
___cxx_global_var_init17:               ## @__cxx_global_var_init17
	.cfi_startproc
## BB#0:
	pushq	%rbp
Ltmp102:
	.cfi_def_cfa_offset 16
Ltmp103:
	.cfi_offset %rbp, -16
	movq	%rsp, %rbp
Ltmp104:
	.cfi_def_cfa_register %rbp
	leaq	__ZL13gVersionCheck(%rip), %rdi
	movl	$393986, %esi           ## imm = 0x60302
	callq	__ZN13TVersionCheckC1Ei
	popq	%rbp
	retq
	.cfi_endproc

	.section	__TEXT,__literal8,8byte_literals
	.align	3
LCPI35_0:
	.quad	4602678819172646912     ## double 0.5
LCPI35_1:
	.quad	-4616189618054758400    ## double -1
	.section	__TEXT,__text,regular,pure_instructions
	.globl	__ZN3fid10FidFactoryC2Ev
	.align	4, 0x90
__ZN3fid10FidFactoryC2Ev:               ## @_ZN3fid10FidFactoryC2Ev
	.cfi_startproc
	.cfi_personality 155, ___gxx_personality_v0
Leh_func_begin35:
	.cfi_lsda 16, Lexception35
## BB#0:
	pushq	%rbp
Ltmp153:
	.cfi_def_cfa_offset 16
Ltmp154:
	.cfi_offset %rbp, -16
	movq	%rsp, %rbp
Ltmp155:
	.cfi_def_cfa_register %rbp
	pushq	%r14
	pushq	%rbx
	subq	$1392, %rsp             ## imm = 0x570
Ltmp156:
	.cfi_offset %rbx, -32
Ltmp157:
	.cfi_offset %r14, -24
	movq	%rdi, -1072(%rbp)
	movq	%rdi, %rax
	movq	%rdi, %rcx
	addq	$40, %rcx
	movq	%rcx, -1064(%rbp)
	movq	%rcx, -1056(%rbp)
	movq	%rcx, -1048(%rbp)
	movq	%rcx, -1040(%rbp)
	movq	$0, 40(%rdi)
	movq	$0, 48(%rdi)
	movq	%rdi, %rdx
	addq	$56, %rdx
	movq	%rdx, -1024(%rbp)
	movq	$0, -1032(%rbp)
	movq	-1024(%rbp), %rdx
	movq	%rdx, -1008(%rbp)
	movq	$0, -1016(%rbp)
	movq	-1008(%rbp), %rdx
	leaq	-1016(%rbp), %rsi
	movq	%rsi, -1000(%rbp)
	movq	-1016(%rbp), %rsi
	movq	%rdx, -984(%rbp)
	movq	%rsi, -992(%rbp)
	movq	-984(%rbp), %rdx
	movq	%rdx, -976(%rbp)
	leaq	-992(%rbp), %rsi
	movq	%rsi, -968(%rbp)
	movq	-992(%rbp), %rsi
	movq	%rsi, (%rdx)
	movq	%rdi, %rdx
	addq	$64, %rdx
	movq	%rdx, -960(%rbp)
	movq	%rdx, -952(%rbp)
	movq	%rdx, -944(%rbp)
	movq	%rdx, -936(%rbp)
	movq	$0, 64(%rdi)
	movq	$0, 72(%rdi)
	movq	%rdi, %rsi
	addq	$80, %rsi
	movq	%rsi, -920(%rbp)
	movq	$0, -928(%rbp)
	movq	-920(%rbp), %rsi
	movq	%rsi, -904(%rbp)
	movq	$0, -912(%rbp)
	movq	-904(%rbp), %rsi
	leaq	-912(%rbp), %r8
	movq	%r8, -896(%rbp)
	movq	-912(%rbp), %r8
	movq	%rsi, -880(%rbp)
	movq	%r8, -888(%rbp)
	movq	-880(%rbp), %rsi
	movq	%rsi, -872(%rbp)
	leaq	-888(%rbp), %r8
	movq	%r8, -864(%rbp)
	movq	-888(%rbp), %r8
	movq	%r8, (%rsi)
	movq	%rdi, %rsi
	addq	$88, %rsi
	movq	%rsi, -856(%rbp)
	movq	%rsi, -848(%rbp)
	movq	%rsi, -840(%rbp)
	movq	%rsi, -832(%rbp)
	movq	$0, 88(%rdi)
	movq	$0, 96(%rdi)
	movq	%rdi, %r8
	addq	$104, %r8
	movq	%r8, -816(%rbp)
	movq	$0, -824(%rbp)
	movq	-816(%rbp), %r8
	movq	%r8, -800(%rbp)
	movq	$0, -808(%rbp)
	movq	-800(%rbp), %r8
	leaq	-808(%rbp), %r9
	movq	%r9, -792(%rbp)
	movq	-808(%rbp), %r9
	movq	%r8, -776(%rbp)
	movq	%r9, -784(%rbp)
	movq	-776(%rbp), %r8
	movq	%r8, -768(%rbp)
	leaq	-784(%rbp), %r9
	movq	%r9, -760(%rbp)
	movq	-784(%rbp), %r9
	movq	%r9, (%r8)
	movq	%rdi, %r8
	addq	$112, %r8
	movq	%r8, -752(%rbp)
	movq	%r8, -744(%rbp)
	movq	%r8, -736(%rbp)
	movq	%r8, -728(%rbp)
	movq	$0, 112(%rdi)
	movq	$0, 120(%rdi)
	movq	%rdi, %r9
	subq	$-128, %r9
	movq	%r9, -712(%rbp)
	movq	$0, -720(%rbp)
	movq	-712(%rbp), %r9
	movq	%r9, -696(%rbp)
	movq	$0, -704(%rbp)
	movq	-696(%rbp), %r9
	leaq	-704(%rbp), %r10
	movq	%r10, -688(%rbp)
	movq	-704(%rbp), %r10
	movq	%r9, -672(%rbp)
	movq	%r10, -680(%rbp)
	movq	-672(%rbp), %r9
	movq	%r9, -664(%rbp)
	leaq	-680(%rbp), %r10
	movq	%r10, -656(%rbp)
	movq	-680(%rbp), %r10
	movq	%r10, (%r9)
	movq	%rdi, %r9
	addq	$136, %r9
	movq	%r9, -648(%rbp)
	movq	%r9, -640(%rbp)
	movq	%r9, -632(%rbp)
	movq	%r9, -624(%rbp)
	movq	$0, 136(%rdi)
	movq	$0, 144(%rdi)
	movq	%rdi, %r10
	addq	$152, %r10
	movq	%r10, -608(%rbp)
	movq	$0, -616(%rbp)
	movq	-608(%rbp), %r10
	movq	%r10, -592(%rbp)
	movq	$0, -600(%rbp)
	movq	-592(%rbp), %r10
	leaq	-600(%rbp), %r11
	movq	%r11, -584(%rbp)
	movq	-600(%rbp), %r11
	movq	%r10, -568(%rbp)
	movq	%r11, -576(%rbp)
	movq	-568(%rbp), %r10
	movq	%r10, -560(%rbp)
	leaq	-576(%rbp), %r11
	movq	%r11, -552(%rbp)
	movq	-576(%rbp), %r11
	movq	%r11, (%r10)
	movq	%rdi, %r10
	addq	$160, %r10
	movq	%r10, -544(%rbp)
	movq	%r10, -536(%rbp)
	movq	%r10, -528(%rbp)
	movq	%r10, -520(%rbp)
	movq	$0, 160(%rdi)
	movq	$0, 168(%rdi)
	movq	%rdi, %r11
	addq	$176, %r11
	movq	%r11, -504(%rbp)
	movq	$0, -512(%rbp)
	movq	-504(%rbp), %r11
	movq	%r11, -488(%rbp)
	movq	$0, -496(%rbp)
	movq	-488(%rbp), %r11
	leaq	-496(%rbp), %rbx
	movq	%rbx, -480(%rbp)
	movq	-496(%rbp), %rbx
	movq	%r11, -464(%rbp)
	movq	%rbx, -472(%rbp)
	movq	-464(%rbp), %r11
	movq	%r11, -456(%rbp)
	leaq	-472(%rbp), %rbx
	movq	%rbx, -448(%rbp)
	movq	-472(%rbp), %rbx
	movq	%rbx, (%r11)
	movq	%rdi, %r11
	addq	$216, %r11
	movq	%r11, -440(%rbp)
	movq	%r11, -432(%rbp)
	movq	%r11, -424(%rbp)
	movq	%r11, -416(%rbp)
	movq	$0, 216(%rdi)
	movq	$0, 224(%rdi)
	movq	%rdi, %rbx
	addq	$232, %rbx
	movq	%rbx, -400(%rbp)
	movq	$0, -408(%rbp)
	movq	-400(%rbp), %rbx
	movq	%rbx, -384(%rbp)
	movq	$0, -392(%rbp)
	movq	-384(%rbp), %rbx
	leaq	-392(%rbp), %r14
	movq	%r14, -376(%rbp)
	movq	-392(%rbp), %r14
	movq	%rbx, -360(%rbp)
	movq	%r14, -368(%rbp)
	movq	-360(%rbp), %rbx
	movq	%rbx, -352(%rbp)
	leaq	-368(%rbp), %r14
	movq	%r14, -344(%rbp)
	movq	-368(%rbp), %r14
	movq	%r14, (%rbx)
	movq	__ZN3fid3sim10start_timeE@GOTPCREL(%rip), %rbx
	movsd	(%rbx), %xmm0
	movsd	%xmm0, (%rdi)
	movq	__ZN3fid3sim10delta_timeE@GOTPCREL(%rip), %rbx
	movsd	(%rbx), %xmm1
	movq	__ZN3fid3sim11num_samplesE@GOTPCREL(%rip), %rbx
	cvtsi2sdl	(%rbx), %xmm2
	mulsd	%xmm2, %xmm1
	addsd	%xmm1, %xmm0
	movsd	%xmm0, 8(%rdi)
Ltmp105:
	movq	__ZNSt3__14coutE@GOTPCREL(%rip), %rdi
	leaq	L_.str(%rip), %rbx
	movq	%rsi, -1096(%rbp)       ## 8-byte Spill
	movq	%rbx, %rsi
	movq	%r11, -1104(%rbp)       ## 8-byte Spill
	movq	%rax, -1112(%rbp)       ## 8-byte Spill
	movq	%rcx, -1120(%rbp)       ## 8-byte Spill
	movq	%rdx, -1128(%rbp)       ## 8-byte Spill
	movq	%r10, -1136(%rbp)       ## 8-byte Spill
	movq	%r8, -1144(%rbp)        ## 8-byte Spill
	movq	%r9, -1152(%rbp)        ## 8-byte Spill
	callq	__ZNSt3__1lsINS_11char_traitsIcEEEERNS_13basic_ostreamIcT_EES6_PKc
Ltmp106:
	movq	%rax, -1160(%rbp)       ## 8-byte Spill
	jmp	LBB35_1
LBB35_1:
	movq	__ZN3fid3sim14dt_integrationE@GOTPCREL(%rip), %rax
	movsd	(%rax), %xmm0
Ltmp107:
	movq	-1160(%rbp), %rdi       ## 8-byte Reload
	callq	__ZNSt3__113basic_ostreamIcNS_11char_traitsIcEEElsEd
Ltmp108:
	movq	%rax, -1168(%rbp)       ## 8-byte Spill
	jmp	LBB35_2
LBB35_2:
	movq	-1168(%rbp), %rax       ## 8-byte Reload
	movq	%rax, -328(%rbp)
	leaq	__ZNSt3__14endlIcNS_11char_traitsIcEEEERNS_13basic_ostreamIT_T0_EES7_(%rip), %rcx
	movq	%rcx, -336(%rbp)
	movq	-328(%rbp), %rdi
Ltmp109:
	callq	*%rcx
Ltmp110:
	movq	%rax, -1176(%rbp)       ## 8-byte Spill
	jmp	LBB35_3
LBB35_3:                                ## %_ZNSt3__113basic_ostreamIcNS_11char_traitsIcEEElsEPFRS3_S4_E.exit
	jmp	LBB35_4
LBB35_4:
Ltmp111:
	movq	__ZNSt3__14coutE@GOTPCREL(%rip), %rdi
	leaq	L_.str18(%rip), %rsi
	callq	__ZNSt3__1lsINS_11char_traitsIcEEEERNS_13basic_ostreamIcT_EES6_PKc
Ltmp112:
	movq	%rax, -1184(%rbp)       ## 8-byte Spill
	jmp	LBB35_5
LBB35_5:
Ltmp113:
	movq	__ZN3fid3sim14dt_integrationE@GOTPCREL(%rip), %rsi
	movq	-1184(%rbp), %rdi       ## 8-byte Reload
	callq	__ZNSt3__113basic_ostreamIcNS_11char_traitsIcEEElsEPKv
Ltmp114:
	movq	%rax, -1192(%rbp)       ## 8-byte Spill
	jmp	LBB35_6
LBB35_6:
	movq	-1192(%rbp), %rax       ## 8-byte Reload
	movq	%rax, -312(%rbp)
	leaq	__ZNSt3__14endlIcNS_11char_traitsIcEEEERNS_13basic_ostreamIT_T0_EES7_(%rip), %rcx
	movq	%rcx, -320(%rbp)
	movq	-312(%rbp), %rdi
Ltmp115:
	callq	*%rcx
Ltmp116:
	movq	%rax, -1200(%rbp)       ## 8-byte Spill
	jmp	LBB35_7
LBB35_7:                                ## %_ZNSt3__113basic_ostreamIcNS_11char_traitsIcEEElsEPFRS3_S4_E.exit1
	jmp	LBB35_8
LBB35_8:
	movsd	LCPI35_0(%rip), %xmm0
	movq	__ZN3fid3sim11num_samplesE@GOTPCREL(%rip), %rax
	movq	__ZN3fid3sim14dt_integrationE@GOTPCREL(%rip), %rcx
	movq	-1112(%rbp), %rdx       ## 8-byte Reload
	movsd	8(%rdx), %xmm1
	subsd	(%rdx), %xmm1
	movsd	(%rcx), %xmm2
	cvtsi2sdl	(%rax), %xmm3
	mulsd	%xmm3, %xmm2
	divsd	%xmm2, %xmm1
	addsd	%xmm0, %xmm1
	cvttsd2si	%xmm1, %esi
	movl	%esi, 24(%rdx)
	cmpl	$0, 24(%rdx)
	jne	LBB35_17
## BB#9:
Ltmp125:
	movq	__ZNSt3__14coutE@GOTPCREL(%rip), %rdi
	leaq	L_.str19(%rip), %rsi
	callq	__ZNSt3__1lsINS_11char_traitsIcEEEERNS_13basic_ostreamIcT_EES6_PKc
Ltmp126:
	movq	%rax, -1208(%rbp)       ## 8-byte Spill
	jmp	LBB35_10
LBB35_10:
Ltmp127:
	movq	__ZNSt3__14coutE@GOTPCREL(%rip), %rdi
	leaq	L_.str20(%rip), %rsi
	callq	__ZNSt3__1lsINS_11char_traitsIcEEEERNS_13basic_ostreamIcT_EES6_PKc
Ltmp128:
	movq	%rax, -1216(%rbp)       ## 8-byte Spill
	jmp	LBB35_11
LBB35_11:
	movq	__ZN3fid3sim10delta_timeE@GOTPCREL(%rip), %rax
	movsd	(%rax), %xmm0
Ltmp129:
	movq	-1216(%rbp), %rdi       ## 8-byte Reload
	callq	__ZNSt3__113basic_ostreamIcNS_11char_traitsIcEEElsEd
Ltmp130:
	movq	%rax, -1224(%rbp)       ## 8-byte Spill
	jmp	LBB35_12
LBB35_12:
Ltmp131:
	movq	__ZNSt3__14coutE@GOTPCREL(%rip), %rdi
	leaq	L_.str21(%rip), %rsi
	callq	__ZNSt3__1lsINS_11char_traitsIcEEEERNS_13basic_ostreamIcT_EES6_PKc
Ltmp132:
	movq	%rax, -1232(%rbp)       ## 8-byte Spill
	jmp	LBB35_13
LBB35_13:
	movq	-1232(%rbp), %rax       ## 8-byte Reload
	movq	%rax, -296(%rbp)
	leaq	__ZNSt3__14endlIcNS_11char_traitsIcEEEERNS_13basic_ostreamIT_T0_EES7_(%rip), %rcx
	movq	%rcx, -304(%rbp)
	movq	-296(%rbp), %rdi
Ltmp133:
	callq	*%rcx
Ltmp134:
	movq	%rax, -1240(%rbp)       ## 8-byte Spill
	jmp	LBB35_14
LBB35_14:                               ## %_ZNSt3__113basic_ostreamIcNS_11char_traitsIcEEElsEPFRS3_S4_E.exit2
	jmp	LBB35_15
LBB35_15:
	movq	__ZN3fid3sim10delta_timeE@GOTPCREL(%rip), %rax
	movq	-1112(%rbp), %rcx       ## 8-byte Reload
	movl	$1, 24(%rcx)
	movsd	(%rax), %xmm0
	movsd	%xmm0, 16(%rcx)
	jmp	LBB35_25
LBB35_16:
Ltmp152:
	movl	%edx, %ecx
	movq	%rax, -1080(%rbp)
	movl	%ecx, -1084(%rbp)
	jmp	LBB35_44
LBB35_17:
	movq	__ZN3fid3sim14dt_integrationE@GOTPCREL(%rip), %rax
	movq	__ZN3fid3sim10delta_timeE@GOTPCREL(%rip), %rcx
	movsd	(%rcx), %xmm0
	movq	-1112(%rbp), %rcx       ## 8-byte Reload
	cvtsi2sdl	24(%rcx), %xmm1
	divsd	%xmm1, %xmm0
	movsd	%xmm0, 16(%rcx)
	movsd	16(%rcx), %xmm0
	ucomisd	(%rax), %xmm0
	jne	LBB35_18
	jp	LBB35_18
	jmp	LBB35_24
LBB35_18:
Ltmp117:
	movq	__ZNSt3__14coutE@GOTPCREL(%rip), %rdi
	leaq	L_.str22(%rip), %rsi
	callq	__ZNSt3__1lsINS_11char_traitsIcEEEERNS_13basic_ostreamIcT_EES6_PKc
Ltmp118:
	movq	%rax, -1248(%rbp)       ## 8-byte Spill
	jmp	LBB35_19
LBB35_19:
Ltmp119:
	movq	__ZNSt3__14coutE@GOTPCREL(%rip), %rdi
	leaq	L_.str23(%rip), %rsi
	callq	__ZNSt3__1lsINS_11char_traitsIcEEEERNS_13basic_ostreamIcT_EES6_PKc
Ltmp120:
	movq	%rax, -1256(%rbp)       ## 8-byte Spill
	jmp	LBB35_20
LBB35_20:
	movq	-1112(%rbp), %rax       ## 8-byte Reload
	movsd	16(%rax), %xmm0
Ltmp121:
	movq	__ZNSt3__14coutE@GOTPCREL(%rip), %rdi
	callq	__ZNSt3__113basic_ostreamIcNS_11char_traitsIcEEElsEd
Ltmp122:
	movq	%rax, -1264(%rbp)       ## 8-byte Spill
	jmp	LBB35_21
LBB35_21:
	movq	-1264(%rbp), %rax       ## 8-byte Reload
	movq	%rax, -280(%rbp)
	leaq	__ZNSt3__14endlIcNS_11char_traitsIcEEEERNS_13basic_ostreamIT_T0_EES7_(%rip), %rcx
	movq	%rcx, -288(%rbp)
	movq	-280(%rbp), %rdi
Ltmp123:
	callq	*%rcx
Ltmp124:
	movq	%rax, -1272(%rbp)       ## 8-byte Spill
	jmp	LBB35_22
LBB35_22:                               ## %_ZNSt3__113basic_ostreamIcNS_11char_traitsIcEEElsEPFRS3_S4_E.exit3
	jmp	LBB35_23
LBB35_23:
	jmp	LBB35_24
LBB35_24:
	jmp	LBB35_25
LBB35_25:
	movq	-1112(%rbp), %rax       ## 8-byte Reload
	movl	24(%rax), %ecx
	movq	__ZN3fid3sim11num_samplesE@GOTPCREL(%rip), %rdx
	movl	(%rdx), %esi
	imull	%esi, %ecx
	movl	%ecx, 28(%rax)
	movl	$0, 32(%rax)
Ltmp135:
	movl	$784, %ecx              ## imm = 0x310
	movl	%ecx, %edi
	callq	__ZN7TObjectnwEm
Ltmp136:
	movq	%rax, -1280(%rbp)       ## 8-byte Spill
	jmp	LBB35_26
LBB35_26:
	movq	__ZN3fid4grad9root_fileE@GOTPCREL(%rip), %rax
	movq	-1280(%rbp), %rcx       ## 8-byte Reload
	movq	%rax, -272(%rbp)
	movq	-272(%rbp), %rax
	movq	%rax, -264(%rbp)
	movq	-264(%rbp), %rax
	movq	%rax, -256(%rbp)
	movq	-256(%rbp), %rax
	movq	%rax, -248(%rbp)
	movq	-248(%rbp), %rdx
	movq	%rdx, -240(%rbp)
	movq	-240(%rbp), %rdx
	movq	%rdx, -232(%rbp)
	movq	-232(%rbp), %rdx
	movzbl	(%rdx), %esi
	andl	$1, %esi
	cmpl	$0, %esi
	movq	%rcx, -1288(%rbp)       ## 8-byte Spill
	movq	%rax, -1296(%rbp)       ## 8-byte Spill
	je	LBB35_28
## BB#27:
	movq	-1296(%rbp), %rax       ## 8-byte Reload
	movq	%rax, -184(%rbp)
	movq	-184(%rbp), %rcx
	movq	%rcx, -176(%rbp)
	movq	-176(%rbp), %rcx
	movq	%rcx, -168(%rbp)
	movq	-168(%rbp), %rcx
	movq	16(%rcx), %rcx
	movq	%rcx, -1304(%rbp)       ## 8-byte Spill
	jmp	LBB35_29
LBB35_28:
	movq	-1296(%rbp), %rax       ## 8-byte Reload
	movq	%rax, -224(%rbp)
	movq	-224(%rbp), %rcx
	movq	%rcx, -216(%rbp)
	movq	-216(%rbp), %rcx
	movq	%rcx, -208(%rbp)
	movq	-208(%rbp), %rcx
	addq	$1, %rcx
	movq	%rcx, -200(%rbp)
	movq	-200(%rbp), %rcx
	movq	%rcx, -192(%rbp)
	movq	-192(%rbp), %rcx
	movq	%rcx, -1304(%rbp)       ## 8-byte Spill
LBB35_29:                               ## %_ZNKSt3__112basic_stringIcNS_11char_traitsIcEENS_9allocatorIcEEE5c_strEv.exit
	movq	-1304(%rbp), %rax       ## 8-byte Reload
	movq	%rax, -160(%rbp)
Ltmp137:
	leaq	L_.str24(%rip), %rcx
	movl	$1, %r8d
	movq	-1288(%rbp), %rdi       ## 8-byte Reload
	movq	%rax, %rsi
	movq	%rcx, %rdx
	callq	__ZN5TFileC1EPKcS1_S1_i
Ltmp138:
	jmp	LBB35_30
LBB35_30:
	movq	-1112(%rbp), %rax       ## 8-byte Reload
	movq	-1288(%rbp), %rcx       ## 8-byte Reload
	movq	%rcx, 200(%rax)
	movq	(%rcx), %rdx
	movq	1272(%rdx), %rdx
Ltmp140:
	movq	%rcx, %rdi
	callq	*%rdx
Ltmp141:
	movb	%al, -1305(%rbp)        ## 1-byte Spill
	jmp	LBB35_31
LBB35_31:
	movb	-1305(%rbp), %al        ## 1-byte Reload
	testb	$1, %al
	jne	LBB35_32
	jmp	LBB35_43
LBB35_32:
	movq	-1112(%rbp), %rax       ## 8-byte Reload
	movq	200(%rax), %rcx
	movq	(%rcx), %rdx
	movq	608(%rdx), %rdx
Ltmp142:
	leaq	L_.str25(%rip), %rsi
	movq	%rcx, %rdi
	callq	*%rdx
Ltmp143:
	movq	%rax, -1320(%rbp)       ## 8-byte Spill
	jmp	LBB35_33
LBB35_33:
	movq	-1112(%rbp), %rax       ## 8-byte Reload
	movq	-1320(%rbp), %rcx       ## 8-byte Reload
	movq	%rcx, 208(%rax)
	addq	$216, %rax
	movq	__ZN3fid3sim11num_samplesE@GOTPCREL(%rip), %rdx
	movslq	(%rdx), %rsi
Ltmp144:
	movq	%rax, %rdi
	callq	__ZNSt3__16vectorIdNS_9allocatorIdEEE6resizeEm
Ltmp145:
	jmp	LBB35_34
LBB35_34:
	movq	__ZN3fid4grad10fid_branchE@GOTPCREL(%rip), %rax
	movq	-1112(%rbp), %rcx       ## 8-byte Reload
	movq	208(%rcx), %rdi
	movq	%rax, -152(%rbp)
	movq	-152(%rbp), %rax
	movq	%rax, -144(%rbp)
	movq	-144(%rbp), %rax
	movq	%rax, -136(%rbp)
	movq	-136(%rbp), %rax
	movq	%rax, -128(%rbp)
	movq	-128(%rbp), %rdx
	movq	%rdx, -120(%rbp)
	movq	-120(%rbp), %rdx
	movq	%rdx, -112(%rbp)
	movq	-112(%rbp), %rdx
	movzbl	(%rdx), %esi
	andl	$1, %esi
	cmpl	$0, %esi
	movq	%rdi, -1328(%rbp)       ## 8-byte Spill
	movq	%rax, -1336(%rbp)       ## 8-byte Spill
	je	LBB35_36
## BB#35:
	movq	-1336(%rbp), %rax       ## 8-byte Reload
	movq	%rax, -64(%rbp)
	movq	-64(%rbp), %rcx
	movq	%rcx, -56(%rbp)
	movq	-56(%rbp), %rcx
	movq	%rcx, -48(%rbp)
	movq	-48(%rbp), %rcx
	movq	16(%rcx), %rcx
	movq	%rcx, -1344(%rbp)       ## 8-byte Spill
	jmp	LBB35_37
LBB35_36:
	movq	-1336(%rbp), %rax       ## 8-byte Reload
	movq	%rax, -104(%rbp)
	movq	-104(%rbp), %rcx
	movq	%rcx, -96(%rbp)
	movq	-96(%rbp), %rcx
	movq	%rcx, -88(%rbp)
	movq	-88(%rbp), %rcx
	addq	$1, %rcx
	movq	%rcx, -80(%rbp)
	movq	-80(%rbp), %rcx
	movq	%rcx, -72(%rbp)
	movq	-72(%rbp), %rcx
	movq	%rcx, -1344(%rbp)       ## 8-byte Spill
LBB35_37:                               ## %_ZNKSt3__112basic_stringIcNS_11char_traitsIcEENS_9allocatorIcEEE5c_strEv.exit4
	movq	-1344(%rbp), %rax       ## 8-byte Reload
	movq	%rax, -40(%rbp)
	movq	-40(%rbp), %rsi
	movq	-1112(%rbp), %rax       ## 8-byte Reload
	addq	$216, %rax
	movq	%rax, -24(%rbp)
	movq	$0, -32(%rbp)
	movq	-24(%rbp), %rax
	movq	-32(%rbp), %rcx
	movq	(%rax), %rax
	shlq	$3, %rcx
	addq	%rcx, %rax
	movq	%rsi, -1352(%rbp)       ## 8-byte Spill
	movq	%rax, -1360(%rbp)       ## 8-byte Spill
## BB#38:
Ltmp146:
	xorl	%eax, %eax
	movl	%eax, %ecx
	movq	-1328(%rbp), %rdi       ## 8-byte Reload
	movq	-1352(%rbp), %rsi       ## 8-byte Reload
	movq	-1360(%rbp), %rdx       ## 8-byte Reload
	callq	__ZN5TTree16SetBranchAddressIdEEiPKcPT_PP7TBranch
Ltmp147:
	movl	%eax, -1364(%rbp)       ## 4-byte Spill
	jmp	LBB35_39
LBB35_39:
	movq	-1112(%rbp), %rax       ## 8-byte Reload
	movq	208(%rax), %rcx
	movq	(%rcx), %rdx
	movq	968(%rdx), %rdx
Ltmp148:
	xorl	%esi, %esi
	movl	%esi, %edi
	movq	%rdi, -1376(%rbp)       ## 8-byte Spill
	movq	%rcx, %rdi
	movq	-1376(%rbp), %rcx       ## 8-byte Reload
	movl	%esi, -1380(%rbp)       ## 4-byte Spill
	movq	%rcx, %rsi
	movl	-1380(%rbp), %r8d       ## 4-byte Reload
	movq	%rdx, -1392(%rbp)       ## 8-byte Spill
	movl	%r8d, %edx
	movq	-1392(%rbp), %r9        ## 8-byte Reload
	callq	*%r9
Ltmp149:
	movl	%eax, -1396(%rbp)       ## 4-byte Spill
	jmp	LBB35_40
LBB35_40:
	movq	-1112(%rbp), %rax       ## 8-byte Reload
	movq	208(%rax), %rcx
	movq	(%rcx), %rdx
	movq	928(%rdx), %rdx
Ltmp150:
	movq	%rcx, %rdi
	callq	*%rdx
Ltmp151:
	movq	%rax, -1408(%rbp)       ## 8-byte Spill
	jmp	LBB35_41
LBB35_41:
	movsd	LCPI35_0(%rip), %xmm0
	movsd	LCPI35_1(%rip), %xmm1
	movq	__ZN3fid4grad3minE@GOTPCREL(%rip), %rax
	movq	__ZN3fid4grad3maxE@GOTPCREL(%rip), %rcx
	movq	-1408(%rbp), %rdx       ## 8-byte Reload
	movl	%edx, %esi
	movq	-1112(%rbp), %rdi       ## 8-byte Reload
	movl	%esi, 184(%rdi)
	movsd	(%rcx), %xmm2
	subsd	(%rax), %xmm2
	cvtsi2sdl	184(%rdi), %xmm3
	divsd	%xmm3, %xmm2
	movsd	%xmm2, 192(%rdi)
	mulsd	(%rax), %xmm1
	divsd	192(%rdi), %xmm1
	addsd	%xmm0, %xmm1
	cvttsd2si	%xmm1, %esi
	movl	%esi, 188(%rdi)
	jmp	LBB35_43
LBB35_42:
Ltmp139:
	movl	%edx, %ecx
	movq	%rax, -1080(%rbp)
	movl	%ecx, -1084(%rbp)
	movq	-1280(%rbp), %rdi       ## 8-byte Reload
	callq	__ZN7TObjectdlEPv
	jmp	LBB35_44
LBB35_43:
	addq	$1392, %rsp             ## imm = 0x570
	popq	%rbx
	popq	%r14
	popq	%rbp
	retq
LBB35_44:
	movq	-1104(%rbp), %rdi       ## 8-byte Reload
	callq	__ZNSt3__16vectorIdNS_9allocatorIdEEED1Ev
	movq	-1136(%rbp), %rdi       ## 8-byte Reload
	callq	__ZNSt3__16vectorIdNS_9allocatorIdEEED1Ev
	movq	-1152(%rbp), %rdi       ## 8-byte Reload
	callq	__ZNSt3__16vectorIdNS_9allocatorIdEEED1Ev
	movq	-1144(%rbp), %rdi       ## 8-byte Reload
	callq	__ZNSt3__16vectorIdNS_9allocatorIdEEED1Ev
	movq	-1096(%rbp), %rdi       ## 8-byte Reload
	callq	__ZNSt3__16vectorIdNS_9allocatorIdEEED1Ev
	movq	-1128(%rbp), %rdi       ## 8-byte Reload
	callq	__ZNSt3__16vectorIdNS_9allocatorIdEEED1Ev
	movq	-1120(%rbp), %rdi       ## 8-byte Reload
	callq	__ZNSt3__16vectorIdNS_9allocatorIdEEED1Ev
## BB#45:
	movq	-1080(%rbp), %rdi
	callq	__Unwind_Resume
	.cfi_endproc
Leh_func_end35:
	.section	__TEXT,__gcc_except_tab
	.align	2
GCC_except_table35:
Lexception35:
	.byte	255                     ## @LPStart Encoding = omit
	.byte	155                     ## @TType Encoding = indirect pcrel sdata4
	.asciz	"\266\200\200"          ## @TType base offset
	.byte	3                       ## Call site Encoding = udata4
	.byte	52                      ## Call site table length
Lset0 = Ltmp105-Leh_func_begin35        ## >> Call Site 1 <<
	.long	Lset0
Lset1 = Ltmp136-Ltmp105                 ##   Call between Ltmp105 and Ltmp136
	.long	Lset1
Lset2 = Ltmp152-Leh_func_begin35        ##     jumps to Ltmp152
	.long	Lset2
	.byte	0                       ##   On action: cleanup
Lset3 = Ltmp137-Leh_func_begin35        ## >> Call Site 2 <<
	.long	Lset3
Lset4 = Ltmp138-Ltmp137                 ##   Call between Ltmp137 and Ltmp138
	.long	Lset4
Lset5 = Ltmp139-Leh_func_begin35        ##     jumps to Ltmp139
	.long	Lset5
	.byte	0                       ##   On action: cleanup
Lset6 = Ltmp140-Leh_func_begin35        ## >> Call Site 3 <<
	.long	Lset6
Lset7 = Ltmp151-Ltmp140                 ##   Call between Ltmp140 and Ltmp151
	.long	Lset7
Lset8 = Ltmp152-Leh_func_begin35        ##     jumps to Ltmp152
	.long	Lset8
	.byte	0                       ##   On action: cleanup
Lset9 = Ltmp151-Leh_func_begin35        ## >> Call Site 4 <<
	.long	Lset9
Lset10 = Leh_func_end35-Ltmp151         ##   Call between Ltmp151 and Leh_func_end35
	.long	Lset10
	.long	0                       ##     has no landing pad
	.byte	0                       ##   On action: cleanup
	.align	2

	.section	__TEXT,__textcoal_nt,coalesced,pure_instructions
	.globl	__ZNSt3__1lsINS_11char_traitsIcEEEERNS_13basic_ostreamIcT_EES6_PKc
	.weak_def_can_be_hidden	__ZNSt3__1lsINS_11char_traitsIcEEEERNS_13basic_ostreamIcT_EES6_PKc
	.align	4, 0x90
__ZNSt3__1lsINS_11char_traitsIcEEEERNS_13basic_ostreamIcT_EES6_PKc: ## @_ZNSt3__1lsINS_11char_traitsIcEEEERNS_13basic_ostreamIcT_EES6_PKc
	.cfi_startproc
## BB#0:
	pushq	%rbp
Ltmp158:
	.cfi_def_cfa_offset 16
Ltmp159:
	.cfi_offset %rbp, -16
	movq	%rsp, %rbp
Ltmp160:
	.cfi_def_cfa_register %rbp
	subq	$48, %rsp
	movq	%rdi, -16(%rbp)
	movq	%rsi, -24(%rbp)
	movq	-16(%rbp), %rdi
	movq	-24(%rbp), %rsi
	movq	-24(%rbp), %rax
	movq	%rax, -8(%rbp)
	movq	-8(%rbp), %rax
	movq	%rdi, -32(%rbp)         ## 8-byte Spill
	movq	%rax, %rdi
	movq	%rsi, -40(%rbp)         ## 8-byte Spill
	callq	_strlen
	movq	-32(%rbp), %rdi         ## 8-byte Reload
	movq	-40(%rbp), %rsi         ## 8-byte Reload
	movq	%rax, %rdx
	callq	__ZNSt3__124__put_character_sequenceIcNS_11char_traitsIcEEEERNS_13basic_ostreamIT_T0_EES7_PKS4_m
	addq	$48, %rsp
	popq	%rbp
	retq
	.cfi_endproc

	.private_extern	__ZNSt3__14endlIcNS_11char_traitsIcEEEERNS_13basic_ostreamIT_T0_EES7_
	.globl	__ZNSt3__14endlIcNS_11char_traitsIcEEEERNS_13basic_ostreamIT_T0_EES7_
	.weak_definition	__ZNSt3__14endlIcNS_11char_traitsIcEEEERNS_13basic_ostreamIT_T0_EES7_
	.align	4, 0x90
__ZNSt3__14endlIcNS_11char_traitsIcEEEERNS_13basic_ostreamIT_T0_EES7_: ## @_ZNSt3__14endlIcNS_11char_traitsIcEEEERNS_13basic_ostreamIT_T0_EES7_
	.cfi_startproc
	.cfi_personality 155, ___gxx_personality_v0
Leh_func_begin37:
	.cfi_lsda 16, Lexception37
## BB#0:
	pushq	%rbp
Ltmp166:
	.cfi_def_cfa_offset 16
Ltmp167:
	.cfi_offset %rbp, -16
	movq	%rsp, %rbp
Ltmp168:
	.cfi_def_cfa_register %rbp
	subq	$144, %rsp
	movq	%rdi, -72(%rbp)
	movq	%rdi, %rax
	movq	(%rdi), %rcx
	movq	-24(%rcx), %rcx
	addq	%rcx, %rdi
	movq	%rdi, -32(%rbp)
	movb	$10, -33(%rbp)
	movq	-32(%rbp), %rsi
	leaq	-48(%rbp), %rcx
	movq	%rcx, %rdi
	movq	%rax, -80(%rbp)         ## 8-byte Spill
	movq	%rcx, -88(%rbp)         ## 8-byte Spill
	callq	__ZNKSt3__18ios_base6getlocEv
	movq	-88(%rbp), %rax         ## 8-byte Reload
	movq	%rax, -24(%rbp)
Ltmp161:
	movq	__ZNSt3__15ctypeIcE2idE@GOTPCREL(%rip), %rsi
	movq	%rax, %rdi
	callq	__ZNKSt3__16locale9use_facetERNS0_2idE
Ltmp162:
	movq	%rax, -96(%rbp)         ## 8-byte Spill
	jmp	LBB37_1
LBB37_1:                                ## %_ZNSt3__19use_facetINS_5ctypeIcEEEERKT_RKNS_6localeE.exit.i
	movb	-33(%rbp), %al
	movq	-96(%rbp), %rcx         ## 8-byte Reload
	movq	%rcx, -8(%rbp)
	movb	%al, -9(%rbp)
	movq	-8(%rbp), %rdx
	movq	(%rdx), %rsi
	movq	56(%rsi), %rsi
	movsbl	-9(%rbp), %edi
Ltmp163:
	movl	%edi, -100(%rbp)        ## 4-byte Spill
	movq	%rdx, %rdi
	movl	-100(%rbp), %r8d        ## 4-byte Reload
	movq	%rsi, -112(%rbp)        ## 8-byte Spill
	movl	%r8d, %esi
	movq	-112(%rbp), %rdx        ## 8-byte Reload
	callq	*%rdx
Ltmp164:
	movb	%al, -113(%rbp)         ## 1-byte Spill
	jmp	LBB37_3
LBB37_2:
Ltmp165:
	leaq	-48(%rbp), %rdi
	movl	%edx, %ecx
	movq	%rax, -56(%rbp)
	movl	%ecx, -60(%rbp)
	callq	__ZNSt3__16localeD1Ev
	movq	-56(%rbp), %rdi
	callq	__Unwind_Resume
LBB37_3:                                ## %_ZNKSt3__19basic_iosIcNS_11char_traitsIcEEE5widenEc.exit
	leaq	-48(%rbp), %rdi
	callq	__ZNSt3__16localeD1Ev
	movq	-80(%rbp), %rdi         ## 8-byte Reload
	movb	-113(%rbp), %al         ## 1-byte Reload
	movsbl	%al, %esi
	callq	__ZNSt3__113basic_ostreamIcNS_11char_traitsIcEEE3putEc
	movq	-72(%rbp), %rdi
	movq	%rax, -128(%rbp)        ## 8-byte Spill
	callq	__ZNSt3__113basic_ostreamIcNS_11char_traitsIcEEE5flushEv
	movq	-72(%rbp), %rdi
	movq	%rax, -136(%rbp)        ## 8-byte Spill
	movq	%rdi, %rax
	addq	$144, %rsp
	popq	%rbp
	retq
	.cfi_endproc
Leh_func_end37:
	.section	__TEXT,__gcc_except_tab
	.align	2
GCC_except_table37:
Lexception37:
	.byte	255                     ## @LPStart Encoding = omit
	.byte	155                     ## @TType Encoding = indirect pcrel sdata4
	.byte	41                      ## @TType base offset
	.byte	3                       ## Call site Encoding = udata4
	.byte	39                      ## Call site table length
Lset11 = Leh_func_begin37-Leh_func_begin37 ## >> Call Site 1 <<
	.long	Lset11
Lset12 = Ltmp161-Leh_func_begin37       ##   Call between Leh_func_begin37 and Ltmp161
	.long	Lset12
	.long	0                       ##     has no landing pad
	.byte	0                       ##   On action: cleanup
Lset13 = Ltmp161-Leh_func_begin37       ## >> Call Site 2 <<
	.long	Lset13
Lset14 = Ltmp164-Ltmp161                ##   Call between Ltmp161 and Ltmp164
	.long	Lset14
Lset15 = Ltmp165-Leh_func_begin37       ##     jumps to Ltmp165
	.long	Lset15
	.byte	0                       ##   On action: cleanup
Lset16 = Ltmp164-Leh_func_begin37       ## >> Call Site 3 <<
	.long	Lset16
Lset17 = Leh_func_end37-Ltmp164         ##   Call between Ltmp164 and Leh_func_end37
	.long	Lset17
	.long	0                       ##     has no landing pad
	.byte	0                       ##   On action: cleanup
	.align	2

	.section	__TEXT,__textcoal_nt,coalesced,pure_instructions
	.globl	__ZN7TObjectnwEm
	.weak_def_can_be_hidden	__ZN7TObjectnwEm
	.align	4, 0x90
__ZN7TObjectnwEm:                       ## @_ZN7TObjectnwEm
	.cfi_startproc
## BB#0:
	pushq	%rbp
Ltmp169:
	.cfi_def_cfa_offset 16
Ltmp170:
	.cfi_offset %rbp, -16
	movq	%rsp, %rbp
Ltmp171:
	.cfi_def_cfa_register %rbp
	subq	$16, %rsp
	movq	%rdi, -8(%rbp)
	movq	-8(%rbp), %rdi
	callq	__ZN8TStorage11ObjectAllocEm
	addq	$16, %rsp
	popq	%rbp
	retq
	.cfi_endproc

	.globl	__ZNSt3__16vectorIdNS_9allocatorIdEEE6resizeEm
	.weak_def_can_be_hidden	__ZNSt3__16vectorIdNS_9allocatorIdEEE6resizeEm
	.align	4, 0x90
__ZNSt3__16vectorIdNS_9allocatorIdEEE6resizeEm: ## @_ZNSt3__16vectorIdNS_9allocatorIdEEE6resizeEm
	.cfi_startproc
	.cfi_personality 155, ___gxx_personality_v0
Leh_func_begin39:
	.cfi_lsda 16, Lexception39
## BB#0:
	pushq	%rbp
Ltmp175:
	.cfi_def_cfa_offset 16
Ltmp176:
	.cfi_offset %rbp, -16
	movq	%rsp, %rbp
Ltmp177:
	.cfi_def_cfa_register %rbp
	subq	$224, %rsp
	movq	%rdi, -168(%rbp)
	movq	%rsi, -176(%rbp)
	movq	-168(%rbp), %rsi
	movq	%rsi, -160(%rbp)
	movq	-160(%rbp), %rdi
	movq	8(%rdi), %rax
	movq	(%rdi), %rdi
	subq	%rdi, %rax
	sarq	$3, %rax
	movq	%rax, -184(%rbp)
	movq	-184(%rbp), %rax
	cmpq	-176(%rbp), %rax
	movq	%rsi, -192(%rbp)        ## 8-byte Spill
	jae	LBB39_2
## BB#1:
	movq	-176(%rbp), %rax
	subq	-184(%rbp), %rax
	movq	-192(%rbp), %rdi        ## 8-byte Reload
	movq	%rax, %rsi
	callq	__ZNSt3__16vectorIdNS_9allocatorIdEEE8__appendEm
	jmp	LBB39_10
LBB39_2:
	movq	-184(%rbp), %rax
	cmpq	-176(%rbp), %rax
	jbe	LBB39_9
## BB#3:
	movq	-192(%rbp), %rax        ## 8-byte Reload
	movq	(%rax), %rcx
	movq	-176(%rbp), %rdx
	shlq	$3, %rdx
	addq	%rdx, %rcx
	movq	%rax, -136(%rbp)
	movq	%rcx, -144(%rbp)
	movq	-136(%rbp), %rcx
	movq	%rcx, -128(%rbp)
	movq	-128(%rbp), %rdx
	movq	8(%rdx), %rsi
	movq	(%rdx), %rdx
	subq	%rdx, %rsi
	sarq	$3, %rsi
	movq	%rsi, -152(%rbp)
	movq	%rcx, %rdx
	movq	-144(%rbp), %rsi
	movq	%rdx, -112(%rbp)
	movq	%rsi, -120(%rbp)
	movq	-112(%rbp), %rdx
	movq	%rcx, -200(%rbp)        ## 8-byte Spill
	movq	%rdx, -208(%rbp)        ## 8-byte Spill
LBB39_4:                                ## =>This Inner Loop Header: Depth=1
	movq	-120(%rbp), %rax
	movq	-208(%rbp), %rcx        ## 8-byte Reload
	cmpq	8(%rcx), %rax
	je	LBB39_6
## BB#5:                                ##   in Loop: Header=BB39_4 Depth=1
	movq	-208(%rbp), %rax        ## 8-byte Reload
	movq	%rax, -104(%rbp)
	movq	-104(%rbp), %rcx
	addq	$16, %rcx
	movq	%rcx, -96(%rbp)
	movq	-96(%rbp), %rcx
	movq	%rcx, -88(%rbp)
	movq	-88(%rbp), %rcx
	movq	8(%rax), %rdx
	addq	$-8, %rdx
	movq	%rdx, 8(%rax)
	movq	%rdx, -80(%rbp)
	movq	-80(%rbp), %rdx
	movq	%rcx, -48(%rbp)
	movq	%rdx, -56(%rbp)
	movq	-48(%rbp), %rcx
	movq	-56(%rbp), %rdx
	movq	%rcx, -32(%rbp)
	movq	%rdx, -40(%rbp)
	movq	-32(%rbp), %rcx
	movq	-40(%rbp), %rdx
	movq	%rcx, -8(%rbp)
	movq	%rdx, -16(%rbp)
	jmp	LBB39_4
LBB39_6:                                ## %_ZNSt3__113__vector_baseIdNS_9allocatorIdEEE17__destruct_at_endEPd.exit.i
	movq	-152(%rbp), %rsi
Ltmp172:
	movq	-200(%rbp), %rdi        ## 8-byte Reload
	callq	__ZNSt3__16vectorIdNS_9allocatorIdEEE17__annotate_shrinkEm
Ltmp173:
	jmp	LBB39_8
LBB39_7:
Ltmp174:
	movl	%edx, %ecx
	movq	%rax, %rdi
	movl	%ecx, -212(%rbp)        ## 4-byte Spill
	callq	___clang_call_terminate
LBB39_8:                                ## %_ZNSt3__16vectorIdNS_9allocatorIdEEE17__destruct_at_endEPd.exit
	jmp	LBB39_9
LBB39_9:
	jmp	LBB39_10
LBB39_10:
	addq	$224, %rsp
	popq	%rbp
	retq
	.cfi_endproc
Leh_func_end39:
	.section	__TEXT,__gcc_except_tab
	.align	2
GCC_except_table39:
Lexception39:
	.byte	255                     ## @LPStart Encoding = omit
	.byte	155                     ## @TType Encoding = indirect pcrel sdata4
	.asciz	"\242\200\200"          ## @TType base offset
	.byte	3                       ## Call site Encoding = udata4
	.byte	26                      ## Call site table length
Lset18 = Leh_func_begin39-Leh_func_begin39 ## >> Call Site 1 <<
	.long	Lset18
Lset19 = Ltmp172-Leh_func_begin39       ##   Call between Leh_func_begin39 and Ltmp172
	.long	Lset19
	.long	0                       ##     has no landing pad
	.byte	0                       ##   On action: cleanup
Lset20 = Ltmp172-Leh_func_begin39       ## >> Call Site 2 <<
	.long	Lset20
Lset21 = Ltmp173-Ltmp172                ##   Call between Ltmp172 and Ltmp173
	.long	Lset21
Lset22 = Ltmp174-Leh_func_begin39       ##     jumps to Ltmp174
	.long	Lset22
	.byte	1                       ##   On action: 1
	.byte	1                       ## >> Action Record 1 <<
                                        ##   Catch TypeInfo 1
	.byte	0                       ##   No further actions
                                        ## >> Catch TypeInfos <<
	.long	0                       ## TypeInfo 1
	.align	2

	.section	__TEXT,__textcoal_nt,coalesced,pure_instructions
	.globl	__ZN5TTree16SetBranchAddressIdEEiPKcPT_PP7TBranch
	.weak_def_can_be_hidden	__ZN5TTree16SetBranchAddressIdEEiPKcPT_PP7TBranch
	.align	4, 0x90
__ZN5TTree16SetBranchAddressIdEEiPKcPT_PP7TBranch: ## @_ZN5TTree16SetBranchAddressIdEEiPKcPT_PP7TBranch
	.cfi_startproc
## BB#0:
	pushq	%rbp
Ltmp178:
	.cfi_def_cfa_offset 16
Ltmp179:
	.cfi_offset %rbp, -16
	movq	%rsp, %rbp
Ltmp180:
	.cfi_def_cfa_register %rbp
	pushq	%rbx
	subq	$88, %rsp
Ltmp181:
	.cfi_offset %rbx, -24
	movq	__ZTId@GOTPCREL(%rip), %rax
	movl	$1, %r8d
	xorl	%r9d, %r9d
	movq	%rdi, -16(%rbp)
	movq	%rsi, -24(%rbp)
	movq	%rdx, -32(%rbp)
	movq	%rcx, -40(%rbp)
	movq	-16(%rbp), %rcx
	movq	%rax, %rdi
	movl	%r8d, %esi
	movl	%r9d, %edx
	movq	%rcx, -64(%rbp)         ## 8-byte Spill
	callq	__ZN6TClass8GetClassERKSt9type_infobb
	movq	%rax, -48(%rbp)
	movl	$-1, -52(%rbp)
	cmpq	$0, -48(%rbp)
	jne	LBB40_2
## BB#1:
	movq	__ZTId@GOTPCREL(%rip), %rax
	movq	%rax, %rdi
	callq	__ZN9TDataType7GetTypeERKSt9type_info
	movl	%eax, -52(%rbp)
LBB40_2:
	xorl	%eax, %eax
	movq	-64(%rbp), %rcx         ## 8-byte Reload
	movq	(%rcx), %rdx
	movq	1576(%rdx), %rdx
	movq	-24(%rbp), %rsi
	movq	-32(%rbp), %rdi
	movq	-40(%rbp), %rcx
	movq	-48(%rbp), %r8
	movl	-52(%rbp), %r9d
	movq	-64(%rbp), %r10         ## 8-byte Reload
	movq	%rdi, -72(%rbp)         ## 8-byte Spill
	movq	%r10, %rdi
	movq	-72(%rbp), %r11         ## 8-byte Reload
	movq	%rdx, -80(%rbp)         ## 8-byte Spill
	movq	%r11, %rdx
	movl	$0, (%rsp)
	movq	-80(%rbp), %rbx         ## 8-byte Reload
	movl	%eax, -84(%rbp)         ## 4-byte Spill
	callq	*%rbx
	addq	$88, %rsp
	popq	%rbx
	popq	%rbp
	retq
	.cfi_endproc

	.globl	__ZNSt3__16vectorIdNS_9allocatorIdEEED1Ev
	.weak_def_can_be_hidden	__ZNSt3__16vectorIdNS_9allocatorIdEEED1Ev
	.align	4, 0x90
__ZNSt3__16vectorIdNS_9allocatorIdEEED1Ev: ## @_ZNSt3__16vectorIdNS_9allocatorIdEEED1Ev
	.cfi_startproc
## BB#0:
	pushq	%rbp
Ltmp182:
	.cfi_def_cfa_offset 16
Ltmp183:
	.cfi_offset %rbp, -16
	movq	%rsp, %rbp
Ltmp184:
	.cfi_def_cfa_register %rbp
	subq	$16, %rsp
	movq	%rdi, -8(%rbp)
	movq	-8(%rbp), %rdi
	callq	__ZNSt3__16vectorIdNS_9allocatorIdEEED2Ev
	addq	$16, %rsp
	popq	%rbp
	retq
	.cfi_endproc

	.section	__TEXT,__text,regular,pure_instructions
	.globl	__ZN3fid10FidFactoryC1Ev
	.align	4, 0x90
__ZN3fid10FidFactoryC1Ev:               ## @_ZN3fid10FidFactoryC1Ev
	.cfi_startproc
## BB#0:
	pushq	%rbp
Ltmp185:
	.cfi_def_cfa_offset 16
Ltmp186:
	.cfi_offset %rbp, -16
	movq	%rsp, %rbp
Ltmp187:
	.cfi_def_cfa_register %rbp
	subq	$16, %rsp
	movq	%rdi, -8(%rbp)
	movq	-8(%rbp), %rdi
	callq	__ZN3fid10FidFactoryC2Ev
	addq	$16, %rsp
	popq	%rbp
	retq
	.cfi_endproc

	.globl	__ZN3fid10FidFactoryD2Ev
	.align	4, 0x90
__ZN3fid10FidFactoryD2Ev:               ## @_ZN3fid10FidFactoryD2Ev
	.cfi_startproc
	.cfi_personality 155, ___gxx_personality_v0
Leh_func_begin43:
	.cfi_lsda 16, Lexception43
## BB#0:
	pushq	%rbp
Ltmp191:
	.cfi_def_cfa_offset 16
Ltmp192:
	.cfi_offset %rbp, -16
	movq	%rsp, %rbp
Ltmp193:
	.cfi_def_cfa_register %rbp
	subq	$48, %rsp
	movq	%rdi, -8(%rbp)
	movq	%rdi, %rax
	movq	200(%rdi), %rdi
	movq	(%rdi), %rcx
	movq	552(%rcx), %rcx
Ltmp188:
	leaq	L_.str24(%rip), %rsi
	movq	%rax, -32(%rbp)         ## 8-byte Spill
	callq	*%rcx
Ltmp189:
	jmp	LBB43_1
LBB43_1:
	movq	-32(%rbp), %rax         ## 8-byte Reload
	movq	200(%rax), %rcx
	cmpq	$0, %rcx
	movq	%rcx, -40(%rbp)         ## 8-byte Spill
	je	LBB43_3
## BB#2:
	movq	-40(%rbp), %rax         ## 8-byte Reload
	movq	(%rax), %rcx
	movq	%rax, %rdi
	callq	*16(%rcx)
LBB43_3:
	movq	-32(%rbp), %rax         ## 8-byte Reload
	addq	$216, %rax
	movq	%rax, %rdi
	callq	__ZNSt3__16vectorIdNS_9allocatorIdEEED1Ev
	movq	-32(%rbp), %rax         ## 8-byte Reload
	addq	$160, %rax
	movq	%rax, %rdi
	callq	__ZNSt3__16vectorIdNS_9allocatorIdEEED1Ev
	movq	-32(%rbp), %rax         ## 8-byte Reload
	addq	$136, %rax
	movq	%rax, %rdi
	callq	__ZNSt3__16vectorIdNS_9allocatorIdEEED1Ev
	movq	-32(%rbp), %rax         ## 8-byte Reload
	addq	$112, %rax
	movq	%rax, %rdi
	callq	__ZNSt3__16vectorIdNS_9allocatorIdEEED1Ev
	movq	-32(%rbp), %rax         ## 8-byte Reload
	addq	$88, %rax
	movq	%rax, %rdi
	callq	__ZNSt3__16vectorIdNS_9allocatorIdEEED1Ev
	movq	-32(%rbp), %rax         ## 8-byte Reload
	addq	$64, %rax
	movq	%rax, %rdi
	callq	__ZNSt3__16vectorIdNS_9allocatorIdEEED1Ev
	movq	-32(%rbp), %rax         ## 8-byte Reload
	addq	$40, %rax
	movq	%rax, %rdi
	callq	__ZNSt3__16vectorIdNS_9allocatorIdEEED1Ev
	addq	$48, %rsp
	popq	%rbp
	retq
LBB43_4:
Ltmp190:
	movl	%edx, %ecx
	movq	%rax, -16(%rbp)
	movl	%ecx, -20(%rbp)
	movq	-32(%rbp), %rax         ## 8-byte Reload
	addq	$216, %rax
	movq	%rax, %rdi
	callq	__ZNSt3__16vectorIdNS_9allocatorIdEEED1Ev
	movq	-32(%rbp), %rax         ## 8-byte Reload
	addq	$160, %rax
	movq	%rax, %rdi
	callq	__ZNSt3__16vectorIdNS_9allocatorIdEEED1Ev
	movq	-32(%rbp), %rax         ## 8-byte Reload
	addq	$136, %rax
	movq	%rax, %rdi
	callq	__ZNSt3__16vectorIdNS_9allocatorIdEEED1Ev
	movq	-32(%rbp), %rax         ## 8-byte Reload
	addq	$112, %rax
	movq	%rax, %rdi
	callq	__ZNSt3__16vectorIdNS_9allocatorIdEEED1Ev
	movq	-32(%rbp), %rax         ## 8-byte Reload
	addq	$88, %rax
	movq	%rax, %rdi
	callq	__ZNSt3__16vectorIdNS_9allocatorIdEEED1Ev
	movq	-32(%rbp), %rax         ## 8-byte Reload
	addq	$64, %rax
	movq	%rax, %rdi
	callq	__ZNSt3__16vectorIdNS_9allocatorIdEEED1Ev
	movq	-32(%rbp), %rax         ## 8-byte Reload
	addq	$40, %rax
	movq	%rax, %rdi
	callq	__ZNSt3__16vectorIdNS_9allocatorIdEEED1Ev
## BB#5:
	movq	-16(%rbp), %rdi
	callq	___clang_call_terminate
	.cfi_endproc
Leh_func_end43:
	.section	__TEXT,__gcc_except_tab
	.align	2
GCC_except_table43:
Lexception43:
	.byte	255                     ## @LPStart Encoding = omit
	.byte	155                     ## @TType Encoding = indirect pcrel sdata4
	.asciz	"\242\200\200"          ## @TType base offset
	.byte	3                       ## Call site Encoding = udata4
	.byte	26                      ## Call site table length
Lset23 = Ltmp188-Leh_func_begin43       ## >> Call Site 1 <<
	.long	Lset23
Lset24 = Ltmp189-Ltmp188                ##   Call between Ltmp188 and Ltmp189
	.long	Lset24
Lset25 = Ltmp190-Leh_func_begin43       ##     jumps to Ltmp190
	.long	Lset25
	.byte	1                       ##   On action: 1
Lset26 = Ltmp189-Leh_func_begin43       ## >> Call Site 2 <<
	.long	Lset26
Lset27 = Leh_func_end43-Ltmp189         ##   Call between Ltmp189 and Leh_func_end43
	.long	Lset27
	.long	0                       ##     has no landing pad
	.byte	0                       ##   On action: cleanup
	.byte	1                       ## >> Action Record 1 <<
                                        ##   Catch TypeInfo 1
	.byte	0                       ##   No further actions
                                        ## >> Catch TypeInfos <<
	.long	0                       ## TypeInfo 1
	.align	2

	.section	__TEXT,__textcoal_nt,coalesced,pure_instructions
	.private_extern	___clang_call_terminate
	.globl	___clang_call_terminate
	.weak_def_can_be_hidden	___clang_call_terminate
	.align	4, 0x90
___clang_call_terminate:                ## @__clang_call_terminate
## BB#0:
	pushq	%rbp
	movq	%rsp, %rbp
	subq	$16, %rsp
	callq	___cxa_begin_catch
	movq	%rax, -8(%rbp)          ## 8-byte Spill
	callq	__ZSt9terminatev

	.section	__TEXT,__text,regular,pure_instructions
	.globl	__ZN3fid10FidFactoryD1Ev
	.align	4, 0x90
__ZN3fid10FidFactoryD1Ev:               ## @_ZN3fid10FidFactoryD1Ev
	.cfi_startproc
## BB#0:
	pushq	%rbp
Ltmp194:
	.cfi_def_cfa_offset 16
Ltmp195:
	.cfi_offset %rbp, -16
	movq	%rsp, %rbp
Ltmp196:
	.cfi_def_cfa_register %rbp
	subq	$16, %rsp
	movq	%rdi, -8(%rbp)
	movq	-8(%rbp), %rdi
	callq	__ZN3fid10FidFactoryD2Ev
	addq	$16, %rsp
	popq	%rbp
	retq
	.cfi_endproc

	.section	__TEXT,__literal8,8byte_literals
	.align	3
LCPI46_0:
	.quad	4607182418800017408     ## double 1
LCPI46_1:
	.quad	4618760256179416344     ## double 6.2831853071795862
	.section	__TEXT,__text,regular,pure_instructions
	.globl	__ZN3fid10FidFactory8IdealFidERNSt3__16vectorIdNS1_9allocatorIdEEEES6_bb
	.align	4, 0x90
__ZN3fid10FidFactory8IdealFidERNSt3__16vectorIdNS1_9allocatorIdEEEES6_bb: ## @_ZN3fid10FidFactory8IdealFidERNSt3__16vectorIdNS1_9allocatorIdEEEES6_bb
	.cfi_startproc
## BB#0:
	pushq	%rbp
Ltmp197:
	.cfi_def_cfa_offset 16
Ltmp198:
	.cfi_offset %rbp, -16
	movq	%rsp, %rbp
Ltmp199:
	.cfi_def_cfa_register %rbp
	pushq	%r14
	pushq	%rbx
	subq	$800, %rsp              ## imm = 0x320
Ltmp200:
	.cfi_offset %rbx, -32
Ltmp201:
	.cfi_offset %r14, -24
	movb	%r8b, %al
	movb	%cl, %r9b
	movq	%rdi, -656(%rbp)
	movq	%rsi, -664(%rbp)
	movq	%rdx, -672(%rbp)
	andb	$1, %r9b
	movb	%r9b, -673(%rbp)
	andb	$1, %al
	movb	%al, -674(%rbp)
	movq	-664(%rbp), %rdi
	movq	-672(%rbp), %rdx
	movq	%rdx, -648(%rbp)
	movq	-648(%rbp), %rdx
	movq	8(%rdx), %rsi
	movq	(%rdx), %rdx
	subq	%rdx, %rsi
	sarq	$3, %rsi
	callq	__ZNSt3__16vectorIdNS_9allocatorIdEEE7reserveEm
	xorl	%ecx, %ecx
	movl	%ecx, %esi
	movq	-664(%rbp), %rdi
	callq	__ZNSt3__16vectorIdNS_9allocatorIdEEE6resizeEm
	leaq	-608(%rbp), %rdx
	movq	__ZN3fid3sim8baselineE@GOTPCREL(%rip), %rsi
	movq	__ZN3fid3sim9amplitudeE@GOTPCREL(%rip), %rdi
	movsd	LCPI46_0(%rip), %xmm0
	movq	__ZN3fid3sim7gamma_1E@GOTPCREL(%rip), %r10
	movq	__ZN3fid3sim11mixdown_phiE@GOTPCREL(%rip), %r11
	movsd	LCPI46_1(%rip), %xmm1
	movq	__ZN3fid3sim8freq_refE@GOTPCREL(%rip), %rbx
	movq	__ZN3fid3sim11freq_larmorE@GOTPCREL(%rip), %r14
	movsd	(%r14), %xmm2
	subsd	(%rbx), %xmm2
	mulsd	%xmm2, %xmm1
	movsd	%xmm1, -696(%rbp)
	movsd	(%r11), %xmm1
	movsd	%xmm1, -704(%rbp)
	divsd	(%r10), %xmm0
	movsd	%xmm0, -712(%rbp)
	movsd	(%rdi), %xmm0
	movsd	%xmm0, -720(%rbp)
	movsd	(%rsi), %xmm0
	movsd	%xmm0, -728(%rbp)
	movq	-672(%rbp), %rsi
	movq	%rsi, -640(%rbp)
	movq	-640(%rbp), %rsi
	movq	(%rsi), %rdi
	movq	%rsi, -616(%rbp)
	movq	%rdi, -624(%rbp)
	movq	-624(%rbp), %rsi
	movq	%rdx, -592(%rbp)
	movq	%rsi, -600(%rbp)
	movq	-592(%rbp), %rdx
	movq	-600(%rbp), %rsi
	movq	%rdx, -576(%rbp)
	movq	%rsi, -584(%rbp)
	movq	-576(%rbp), %rdx
	movq	-584(%rbp), %rsi
	movq	%rsi, (%rdx)
	movq	-608(%rbp), %rdx
	movq	%rdx, -632(%rbp)
	movq	-632(%rbp), %rdx
	movq	%rdx, -736(%rbp)
LBB46_1:                                ## =>This Inner Loop Header: Depth=1
	leaq	-744(%rbp), %rax
	leaq	-736(%rbp), %rcx
	leaq	-536(%rbp), %rdx
	movq	-672(%rbp), %rsi
	movq	%rsi, -568(%rbp)
	movq	-568(%rbp), %rsi
	movq	8(%rsi), %rdi
	movq	%rsi, -544(%rbp)
	movq	%rdi, -552(%rbp)
	movq	-552(%rbp), %rsi
	movq	%rdx, -520(%rbp)
	movq	%rsi, -528(%rbp)
	movq	-520(%rbp), %rdx
	movq	-528(%rbp), %rsi
	movq	%rdx, -504(%rbp)
	movq	%rsi, -512(%rbp)
	movq	-504(%rbp), %rdx
	movq	-512(%rbp), %rsi
	movq	%rsi, (%rdx)
	movq	-536(%rbp), %rdx
	movq	%rdx, -560(%rbp)
	movq	-560(%rbp), %rdx
	movq	%rdx, -744(%rbp)
	movq	%rcx, -288(%rbp)
	movq	%rax, -296(%rbp)
	movq	-288(%rbp), %rax
	movq	-296(%rbp), %rcx
	movq	%rax, -272(%rbp)
	movq	%rcx, -280(%rbp)
	movq	-272(%rbp), %rax
	movq	%rax, -264(%rbp)
	movq	-264(%rbp), %rax
	movq	(%rax), %rax
	movq	-280(%rbp), %rcx
	movq	%rcx, -256(%rbp)
	movq	-256(%rbp), %rcx
	cmpq	(%rcx), %rax
	sete	%r8b
	xorb	$1, %r8b
	testb	$1, %r8b
	jne	LBB46_2
	jmp	LBB46_17
LBB46_2:                                ##   in Loop: Header=BB46_1 Depth=1
	movq	__ZN3fid3sim7t_pulseE@GOTPCREL(%rip), %rax
	leaq	-736(%rbp), %rcx
	movq	%rcx, -248(%rbp)
	movq	-248(%rbp), %rcx
	movq	(%rcx), %rcx
	movsd	(%rcx), %xmm0
	ucomisd	(%rax), %xmm0
	jb	LBB46_9
## BB#3:                                ##   in Loop: Header=BB46_1 Depth=1
	movq	__ZN3fid3sim7t_pulseE@GOTPCREL(%rip), %rax
	leaq	-736(%rbp), %rcx
	movsd	-720(%rbp), %xmm0
	movq	%rcx, -32(%rbp)
	movq	-32(%rbp), %rcx
	movq	(%rcx), %rcx
	movsd	(%rcx), %xmm1
	subsd	(%rax), %xmm1
	movd	%xmm1, %rax
	movabsq	$-9223372036854775808, %rcx ## imm = 0x8000000000000000
	xorq	%rcx, %rax
	movd	%rax, %xmm1
	divsd	-712(%rbp), %xmm1
	movsd	%xmm0, -760(%rbp)       ## 8-byte Spill
	movaps	%xmm1, %xmm0
	callq	_exp
	leaq	-752(%rbp), %rax
	leaq	-736(%rbp), %rcx
	movsd	-760(%rbp), %xmm1       ## 8-byte Reload
	mulsd	%xmm0, %xmm1
	movsd	%xmm1, -688(%rbp)
	movq	%rcx, -24(%rbp)
	movq	-24(%rbp), %rcx
	movq	(%rcx), %rcx
	movsd	(%rcx), %xmm0
	mulsd	-696(%rbp), %xmm0
	addsd	-704(%rbp), %xmm0
	movq	%rax, -768(%rbp)        ## 8-byte Spill
	callq	_sin
	movsd	-688(%rbp), %xmm1
	mulsd	%xmm0, %xmm1
	movsd	%xmm1, -688(%rbp)
	movq	-664(%rbp), %rax
	movsd	-688(%rbp), %xmm0
	addsd	-728(%rbp), %xmm0
	movsd	%xmm0, -752(%rbp)
	movq	%rax, -232(%rbp)
	movq	-768(%rbp), %rax        ## 8-byte Reload
	movq	%rax, -240(%rbp)
	movq	-232(%rbp), %rcx
	movq	8(%rcx), %rdx
	movq	%rcx, %rsi
	movq	%rsi, -224(%rbp)
	movq	-224(%rbp), %rsi
	addq	$16, %rsi
	movq	%rsi, -216(%rbp)
	movq	-216(%rbp), %rsi
	movq	%rsi, -208(%rbp)
	movq	-208(%rbp), %rsi
	cmpq	(%rsi), %rdx
	movq	%rcx, -776(%rbp)        ## 8-byte Spill
	jae	LBB46_7
## BB#4:                                ##   in Loop: Header=BB46_1 Depth=1
	movl	$1, %eax
	movl	%eax, %esi
	movq	-776(%rbp), %rdi        ## 8-byte Reload
	callq	__ZNSt3__16vectorIdNS_9allocatorIdEEE19__annotate_increaseEm
	movq	-776(%rbp), %rsi        ## 8-byte Reload
	movq	%rsi, -200(%rbp)
	movq	-200(%rbp), %rsi
	addq	$16, %rsi
	movq	%rsi, -192(%rbp)
	movq	-192(%rbp), %rsi
	movq	%rsi, -184(%rbp)
	movq	-184(%rbp), %rsi
	movq	-776(%rbp), %rdi        ## 8-byte Reload
	movq	8(%rdi), %rcx
	movq	%rcx, -40(%rbp)
	movq	-40(%rbp), %rcx
	movq	-240(%rbp), %rdx
	movq	%rdx, -48(%rbp)
	movq	-48(%rbp), %rdx
	movq	%rsi, -136(%rbp)
	movq	%rcx, -144(%rbp)
	movq	%rdx, -152(%rbp)
	movq	-136(%rbp), %rcx
	movq	-144(%rbp), %rdx
	movq	-152(%rbp), %rsi
	movq	%rsi, -128(%rbp)
	movq	-128(%rbp), %rsi
	movq	%rcx, -104(%rbp)
	movq	%rdx, -112(%rbp)
	movq	%rsi, -120(%rbp)
	movq	-104(%rbp), %rcx
	movq	-112(%rbp), %rdx
	movq	-120(%rbp), %rsi
	movq	%rsi, -88(%rbp)
	movq	-88(%rbp), %rsi
	movq	%rcx, -64(%rbp)
	movq	%rdx, -72(%rbp)
	movq	%rsi, -80(%rbp)
	movq	-72(%rbp), %rcx
	cmpq	$0, %rcx
	movq	%rcx, -784(%rbp)        ## 8-byte Spill
	je	LBB46_6
## BB#5:                                ##   in Loop: Header=BB46_1 Depth=1
	movq	-784(%rbp), %rax        ## 8-byte Reload
	movq	-80(%rbp), %rcx
	movq	%rcx, -56(%rbp)
	movq	-56(%rbp), %rcx
	movsd	(%rcx), %xmm0
	movq	-784(%rbp), %rcx        ## 8-byte Reload
	movsd	%xmm0, (%rcx)
	movq	%rax, -792(%rbp)        ## 8-byte Spill
LBB46_6:                                ## %_ZNSt3__116allocator_traitsINS_9allocatorIdEEE9constructIdJdEEEvRS2_PT_DpOT0_.exit.i
                                        ##   in Loop: Header=BB46_1 Depth=1
	movq	-776(%rbp), %rax        ## 8-byte Reload
	movq	8(%rax), %rcx
	addq	$8, %rcx
	movq	%rcx, 8(%rax)
	jmp	LBB46_8
LBB46_7:                                ##   in Loop: Header=BB46_1 Depth=1
	movq	-240(%rbp), %rax
	movq	%rax, -176(%rbp)
	movq	-176(%rbp), %rsi
	movq	-776(%rbp), %rdi        ## 8-byte Reload
	callq	__ZNSt3__16vectorIdNS_9allocatorIdEEE21__push_back_slow_pathIdEEvOT_
LBB46_8:                                ## %_ZNSt3__16vectorIdNS_9allocatorIdEEE9push_backEOd.exit
                                        ##   in Loop: Header=BB46_1 Depth=1
	jmp	LBB46_15
LBB46_9:                                ##   in Loop: Header=BB46_1 Depth=1
	leaq	-728(%rbp), %rax
	movq	-664(%rbp), %rcx
	movq	%rcx, -480(%rbp)
	movq	%rax, -488(%rbp)
	movq	-480(%rbp), %rax
	movq	8(%rax), %rcx
	movq	%rax, %rdx
	movq	%rdx, -472(%rbp)
	movq	-472(%rbp), %rdx
	addq	$16, %rdx
	movq	%rdx, -464(%rbp)
	movq	-464(%rbp), %rdx
	movq	%rdx, -456(%rbp)
	movq	-456(%rbp), %rdx
	cmpq	(%rdx), %rcx
	movq	%rax, -800(%rbp)        ## 8-byte Spill
	je	LBB46_13
## BB#10:                               ##   in Loop: Header=BB46_1 Depth=1
	movl	$1, %eax
	movl	%eax, %esi
	movq	-800(%rbp), %rdi        ## 8-byte Reload
	callq	__ZNSt3__16vectorIdNS_9allocatorIdEEE19__annotate_increaseEm
	movq	-800(%rbp), %rsi        ## 8-byte Reload
	movq	%rsi, -448(%rbp)
	movq	-448(%rbp), %rsi
	addq	$16, %rsi
	movq	%rsi, -440(%rbp)
	movq	-440(%rbp), %rsi
	movq	%rsi, -432(%rbp)
	movq	-432(%rbp), %rsi
	movq	-800(%rbp), %rdi        ## 8-byte Reload
	movq	8(%rdi), %rcx
	movq	%rcx, -304(%rbp)
	movq	-304(%rbp), %rcx
	movq	-488(%rbp), %rdx
	movq	%rsi, -392(%rbp)
	movq	%rcx, -400(%rbp)
	movq	%rdx, -408(%rbp)
	movq	-392(%rbp), %rcx
	movq	-400(%rbp), %rdx
	movq	-408(%rbp), %rsi
	movq	%rsi, -384(%rbp)
	movq	-384(%rbp), %rsi
	movq	%rcx, -360(%rbp)
	movq	%rdx, -368(%rbp)
	movq	%rsi, -376(%rbp)
	movq	-360(%rbp), %rcx
	movq	-368(%rbp), %rdx
	movq	-376(%rbp), %rsi
	movq	%rsi, -344(%rbp)
	movq	-344(%rbp), %rsi
	movq	%rcx, -320(%rbp)
	movq	%rdx, -328(%rbp)
	movq	%rsi, -336(%rbp)
	movq	-328(%rbp), %rcx
	cmpq	$0, %rcx
	movq	%rcx, -808(%rbp)        ## 8-byte Spill
	je	LBB46_12
## BB#11:                               ##   in Loop: Header=BB46_1 Depth=1
	movq	-808(%rbp), %rax        ## 8-byte Reload
	movq	-336(%rbp), %rcx
	movq	%rcx, -312(%rbp)
	movq	-312(%rbp), %rcx
	movsd	(%rcx), %xmm0
	movq	-808(%rbp), %rcx        ## 8-byte Reload
	movsd	%xmm0, (%rcx)
	movq	%rax, -816(%rbp)        ## 8-byte Spill
LBB46_12:                               ## %_ZNSt3__116allocator_traitsINS_9allocatorIdEEE9constructIdJRKdEEEvRS2_PT_DpOT0_.exit.i
                                        ##   in Loop: Header=BB46_1 Depth=1
	movq	-800(%rbp), %rax        ## 8-byte Reload
	movq	8(%rax), %rcx
	addq	$8, %rcx
	movq	%rcx, 8(%rax)
	jmp	LBB46_14
LBB46_13:                               ##   in Loop: Header=BB46_1 Depth=1
	movq	-488(%rbp), %rsi
	movq	-800(%rbp), %rdi        ## 8-byte Reload
	callq	__ZNSt3__16vectorIdNS_9allocatorIdEEE21__push_back_slow_pathIRKdEEvOT_
LBB46_14:                               ## %_ZNSt3__16vectorIdNS_9allocatorIdEEE9push_backERKd.exit
                                        ##   in Loop: Header=BB46_1 Depth=1
	jmp	LBB46_15
LBB46_15:                               ##   in Loop: Header=BB46_1 Depth=1
	jmp	LBB46_16
LBB46_16:                               ##   in Loop: Header=BB46_1 Depth=1
	leaq	-736(%rbp), %rax
	movq	%rax, -496(%rbp)
	movq	-496(%rbp), %rax
	movq	(%rax), %rcx
	addq	$8, %rcx
	movq	%rcx, (%rax)
	jmp	LBB46_1
LBB46_17:
	testb	$1, -673(%rbp)
	je	LBB46_19
## BB#18:
	movq	__ZN3fid3sim3snrE@GOTPCREL(%rip), %rax
	movq	-664(%rbp), %rdi
	movsd	(%rax), %xmm0
	callq	__ZN3fid8addnoiseIdEEvRNSt3__16vectorIT_NS1_9allocatorIS3_EEEES3_
LBB46_19:
	testb	$1, -674(%rbp)
	je	LBB46_21
## BB#20:
	movq	-664(%rbp), %rdi
	callq	__ZN3fid5floorIdEEvRNSt3__16vectorIT_NS1_9allocatorIS3_EEEE
LBB46_21:
	addq	$800, %rsp              ## imm = 0x320
	popq	%rbx
	popq	%r14
	popq	%rbp
	retq
	.cfi_endproc

	.section	__TEXT,__textcoal_nt,coalesced,pure_instructions
	.globl	__ZNSt3__16vectorIdNS_9allocatorIdEEE7reserveEm
	.weak_def_can_be_hidden	__ZNSt3__16vectorIdNS_9allocatorIdEEE7reserveEm
	.align	4, 0x90
__ZNSt3__16vectorIdNS_9allocatorIdEEE7reserveEm: ## @_ZNSt3__16vectorIdNS_9allocatorIdEEE7reserveEm
	.cfi_startproc
	.cfi_personality 155, ___gxx_personality_v0
Leh_func_begin47:
	.cfi_lsda 16, Lexception47
## BB#0:
	pushq	%rbp
Ltmp205:
	.cfi_def_cfa_offset 16
Ltmp206:
	.cfi_offset %rbp, -16
	movq	%rsp, %rbp
Ltmp207:
	.cfi_def_cfa_register %rbp
	subq	$176, %rsp
	movq	%rdi, -80(%rbp)
	movq	%rsi, -88(%rbp)
	movq	-80(%rbp), %rsi
	movq	-88(%rbp), %rdi
	movq	%rsi, -72(%rbp)
	movq	-72(%rbp), %rax
	movq	%rax, -64(%rbp)
	movq	-64(%rbp), %rax
	movq	%rax, -56(%rbp)
	movq	-56(%rbp), %rcx
	addq	$16, %rcx
	movq	%rcx, -48(%rbp)
	movq	-48(%rbp), %rcx
	movq	%rcx, -40(%rbp)
	movq	-40(%rbp), %rcx
	movq	(%rcx), %rcx
	movq	(%rax), %rax
	subq	%rax, %rcx
	sarq	$3, %rcx
	cmpq	%rcx, %rdi
	movq	%rsi, -160(%rbp)        ## 8-byte Spill
	jbe	LBB47_4
## BB#1:
	movq	-160(%rbp), %rax        ## 8-byte Reload
	movq	%rax, -32(%rbp)
	addq	$16, %rax
	movq	%rax, -24(%rbp)
	movq	%rax, -16(%rbp)
	movq	%rax, -96(%rbp)
	movq	-88(%rbp), %rsi
	movq	-160(%rbp), %rax        ## 8-byte Reload
	movq	%rax, -8(%rbp)
	movq	(%rax), %rcx
	movq	8(%rax), %rdx
	subq	%rcx, %rdx
	sarq	$3, %rdx
	movq	-96(%rbp), %rcx
	leaq	-136(%rbp), %rdi
	movq	%rdi, -168(%rbp)        ## 8-byte Spill
	callq	__ZNSt3__114__split_bufferIdRNS_9allocatorIdEEEC1EmmS3_
Ltmp202:
	movq	-160(%rbp), %rdi        ## 8-byte Reload
	movq	-168(%rbp), %rsi        ## 8-byte Reload
	callq	__ZNSt3__16vectorIdNS_9allocatorIdEEE26__swap_out_circular_bufferERNS_14__split_bufferIdRS2_EE
Ltmp203:
	jmp	LBB47_2
LBB47_2:
	leaq	-136(%rbp), %rdi
	callq	__ZNSt3__114__split_bufferIdRNS_9allocatorIdEEED1Ev
	jmp	LBB47_4
LBB47_3:
Ltmp204:
	leaq	-136(%rbp), %rdi
	movl	%edx, %ecx
	movq	%rax, -144(%rbp)
	movl	%ecx, -148(%rbp)
	callq	__ZNSt3__114__split_bufferIdRNS_9allocatorIdEEED1Ev
	jmp	LBB47_5
LBB47_4:
	addq	$176, %rsp
	popq	%rbp
	retq
LBB47_5:
	movq	-144(%rbp), %rdi
	callq	__Unwind_Resume
	.cfi_endproc
Leh_func_end47:
	.section	__TEXT,__gcc_except_tab
	.align	2
GCC_except_table47:
Lexception47:
	.byte	255                     ## @LPStart Encoding = omit
	.byte	155                     ## @TType Encoding = indirect pcrel sdata4
	.byte	41                      ## @TType base offset
	.byte	3                       ## Call site Encoding = udata4
	.byte	39                      ## Call site table length
Lset28 = Leh_func_begin47-Leh_func_begin47 ## >> Call Site 1 <<
	.long	Lset28
Lset29 = Ltmp202-Leh_func_begin47       ##   Call between Leh_func_begin47 and Ltmp202
	.long	Lset29
	.long	0                       ##     has no landing pad
	.byte	0                       ##   On action: cleanup
Lset30 = Ltmp202-Leh_func_begin47       ## >> Call Site 2 <<
	.long	Lset30
Lset31 = Ltmp203-Ltmp202                ##   Call between Ltmp202 and Ltmp203
	.long	Lset31
Lset32 = Ltmp204-Leh_func_begin47       ##     jumps to Ltmp204
	.long	Lset32
	.byte	0                       ##   On action: cleanup
Lset33 = Ltmp203-Leh_func_begin47       ## >> Call Site 3 <<
	.long	Lset33
Lset34 = Leh_func_end47-Ltmp203         ##   Call between Ltmp203 and Leh_func_end47
	.long	Lset34
	.long	0                       ##     has no landing pad
	.byte	0                       ##   On action: cleanup
	.align	2

	.section	__TEXT,__literal8,8byte_literals
	.align	3
LCPI48_0:
	.quad	4607182418800017408     ## double 1
	.section	__TEXT,__literal16,16byte_literals
	.align	4
LCPI48_1:
	.quad	9223372036854775807     ## double nan
	.quad	9223372036854775807     ## double nan
LCPI48_2:
	.long	1127219200              ## 0x43300000
	.long	1160773632              ## 0x45300000
	.long	0                       ## 0x0
	.long	0                       ## 0x0
LCPI48_3:
	.quad	4841369599423283200     ## double 4.503600e+15
	.quad	4985484787499139072     ## double 1.934281e+25
	.section	__TEXT,__textcoal_nt,coalesced,pure_instructions
	.globl	__ZN3fid8addnoiseIdEEvRNSt3__16vectorIT_NS1_9allocatorIS3_EEEES3_
	.weak_def_can_be_hidden	__ZN3fid8addnoiseIdEEvRNSt3__16vectorIT_NS1_9allocatorIS3_EEEES3_
	.align	4, 0x90
__ZN3fid8addnoiseIdEEvRNSt3__16vectorIT_NS1_9allocatorIS3_EEEES3_: ## @_ZN3fid8addnoiseIdEEvRNSt3__16vectorIT_NS1_9allocatorIS3_EEEES3_
	.cfi_startproc
	.cfi_personality 155, ___gxx_personality_v0
Leh_func_begin48:
	.cfi_lsda 16, Lexception48
## BB#0:
	pushq	%rbp
Ltmp211:
	.cfi_def_cfa_offset 16
Ltmp212:
	.cfi_offset %rbp, -16
	movq	%rsp, %rbp
Ltmp213:
	.cfi_def_cfa_register %rbp
	subq	$832, %rsp              ## imm = 0x340
	movq	__ZGVZN3fid8addnoiseIdEEvRNSt3__16vectorIT_NS1_9allocatorIS3_EEEES3_E3gen@GOTPCREL(%rip), %rax
	movq	%rdi, -648(%rbp)
	movsd	%xmm0, -656(%rbp)
	cmpb	$0, (%rax)
	jne	LBB48_8
## BB#1:
	movq	__ZGVZN3fid8addnoiseIdEEvRNSt3__16vectorIT_NS1_9allocatorIS3_EEEES3_E3gen@GOTPCREL(%rip), %rdi
	callq	___cxa_guard_acquire
	cmpl	$0, %eax
	je	LBB48_8
## BB#2:
Ltmp208:
	callq	_clock
Ltmp209:
	movq	%rax, -800(%rbp)        ## 8-byte Spill
	jmp	LBB48_3
LBB48_3:
	movl	$2147483647, %eax       ## imm = 0x7FFFFFFF
	movq	__ZZN3fid8addnoiseIdEEvRNSt3__16vectorIT_NS1_9allocatorIS3_EEEES3_E3gen@GOTPCREL(%rip), %rcx
	movq	-800(%rbp), %rdx        ## 8-byte Reload
	movl	%edx, %esi
	movq	%rcx, -632(%rbp)
	movl	%esi, -636(%rbp)
	movq	-632(%rbp), %rcx
	movl	-636(%rbp), %esi
	movq	%rcx, -616(%rbp)
	movl	%esi, -620(%rbp)
	movq	-616(%rbp), %rcx
	movl	-620(%rbp), %esi
	movq	%rcx, -592(%rbp)
	movl	%esi, -596(%rbp)
	movq	-592(%rbp), %rcx
	movl	-596(%rbp), %esi
	movq	%rcx, -576(%rbp)
	movl	%esi, -580(%rbp)
	movq	-576(%rbp), %rcx
	movl	-580(%rbp), %esi
	movl	%eax, -804(%rbp)        ## 4-byte Spill
	movl	%esi, %eax
	xorl	%edx, %edx
	movl	-804(%rbp), %esi        ## 4-byte Reload
	divl	%esi
	cmpl	$0, %edx
	movq	%rcx, -816(%rbp)        ## 8-byte Spill
	jne	LBB48_5
## BB#4:
	movl	$1, %eax
	movl	%eax, -820(%rbp)        ## 4-byte Spill
	jmp	LBB48_6
LBB48_5:
	movl	$2147483647, %eax       ## imm = 0x7FFFFFFF
	movl	-580(%rbp), %ecx
	movl	%eax, -824(%rbp)        ## 4-byte Spill
	movl	%ecx, %eax
	xorl	%edx, %edx
	movl	-824(%rbp), %ecx        ## 4-byte Reload
	divl	%ecx
	movl	%edx, -820(%rbp)        ## 4-byte Spill
LBB48_6:                                ## %_ZNSt3__126linear_congruential_engineIjLj48271ELj0ELj2147483647EEC1Ej.exit
	movl	-820(%rbp), %eax        ## 4-byte Reload
	movq	-816(%rbp), %rcx        ## 8-byte Reload
	movl	%eax, (%rcx)
## BB#7:
	movq	__ZGVZN3fid8addnoiseIdEEvRNSt3__16vectorIT_NS1_9allocatorIS3_EEEES3_E3gen@GOTPCREL(%rip), %rdi
	callq	___cxa_guard_release
LBB48_8:
	leaq	-208(%rbp), %rax
	xorps	%xmm0, %xmm0
	movsd	LCPI48_0(%rip), %xmm1
	leaq	-704(%rbp), %rcx
	movq	%rcx, -528(%rbp)
	movsd	%xmm0, -536(%rbp)
	movsd	%xmm1, -544(%rbp)
	movq	-528(%rbp), %rcx
	movsd	-536(%rbp), %xmm1
	movsd	-544(%rbp), %xmm2
	movq	%rcx, -504(%rbp)
	movsd	%xmm1, -512(%rbp)
	movsd	%xmm2, -520(%rbp)
	movq	-504(%rbp), %rcx
	movsd	-512(%rbp), %xmm1
	movsd	-520(%rbp), %xmm2
	movq	%rcx, -480(%rbp)
	movsd	%xmm1, -488(%rbp)
	movsd	%xmm2, -496(%rbp)
	movq	-480(%rbp), %rdx
	movsd	-488(%rbp), %xmm1
	movsd	-496(%rbp), %xmm2
	movq	%rdx, -456(%rbp)
	movsd	%xmm1, -464(%rbp)
	movsd	%xmm2, -472(%rbp)
	movq	-456(%rbp), %rdx
	movsd	-464(%rbp), %xmm1
	movsd	%xmm1, (%rdx)
	movsd	-472(%rbp), %xmm1
	movsd	%xmm1, 8(%rdx)
	movb	$0, 24(%rcx)
	movsd	%xmm0, -712(%rbp)
	movsd	%xmm0, -720(%rbp)
	movsd	%xmm0, -728(%rbp)
	movq	-648(%rbp), %rcx
	movq	%rcx, -240(%rbp)
	movq	-240(%rbp), %rcx
	movq	(%rcx), %rdx
	movq	%rcx, -216(%rbp)
	movq	%rdx, -224(%rbp)
	movq	-224(%rbp), %rcx
	movq	%rax, -192(%rbp)
	movq	%rcx, -200(%rbp)
	movq	-192(%rbp), %rax
	movq	-200(%rbp), %rcx
	movq	%rax, -176(%rbp)
	movq	%rcx, -184(%rbp)
	movq	-176(%rbp), %rax
	movq	-184(%rbp), %rcx
	movq	%rcx, (%rax)
	movq	-208(%rbp), %rax
	movq	%rax, -232(%rbp)
	movq	-232(%rbp), %rax
	movq	%rax, -736(%rbp)
LBB48_9:                                ## =>This Inner Loop Header: Depth=1
	leaq	-744(%rbp), %rax
	leaq	-736(%rbp), %rcx
	leaq	-40(%rbp), %rdx
	movq	-648(%rbp), %rsi
	movq	%rsi, -72(%rbp)
	movq	-72(%rbp), %rsi
	movq	8(%rsi), %rdi
	movq	%rsi, -48(%rbp)
	movq	%rdi, -56(%rbp)
	movq	-56(%rbp), %rsi
	movq	%rdx, -24(%rbp)
	movq	%rsi, -32(%rbp)
	movq	-24(%rbp), %rdx
	movq	-32(%rbp), %rsi
	movq	%rdx, -8(%rbp)
	movq	%rsi, -16(%rbp)
	movq	-8(%rbp), %rdx
	movq	-16(%rbp), %rsi
	movq	%rsi, (%rdx)
	movq	-40(%rbp), %rdx
	movq	%rdx, -64(%rbp)
	movq	-64(%rbp), %rdx
	movq	%rdx, -744(%rbp)
	movq	%rcx, -112(%rbp)
	movq	%rax, -120(%rbp)
	movq	-112(%rbp), %rax
	movq	-120(%rbp), %rcx
	movq	%rax, -96(%rbp)
	movq	%rcx, -104(%rbp)
	movq	-96(%rbp), %rax
	movq	%rax, -88(%rbp)
	movq	-88(%rbp), %rax
	movq	(%rax), %rax
	movq	-104(%rbp), %rcx
	movq	%rcx, -80(%rbp)
	movq	-80(%rbp), %rcx
	cmpq	(%rcx), %rax
	sete	%r8b
	xorb	$1, %r8b
	testb	$1, %r8b
	jne	LBB48_10
	jmp	LBB48_16
LBB48_10:                               ##   in Loop: Header=BB48_9 Depth=1
	leaq	-736(%rbp), %rax
	movq	%rax, -128(%rbp)
	movq	-128(%rbp), %rax
	movq	(%rax), %rax
	movsd	(%rax), %xmm0
	ucomisd	-728(%rbp), %xmm0
	jbe	LBB48_13
## BB#11:                               ##   in Loop: Header=BB48_9 Depth=1
	leaq	-736(%rbp), %rax
	movq	%rax, -136(%rbp)
	movq	-136(%rbp), %rax
	movq	(%rax), %rax
	movsd	(%rax), %xmm0
	movsd	%xmm0, -728(%rbp)
	jmp	LBB48_14
LBB48_12:
Ltmp210:
	movq	__ZGVZN3fid8addnoiseIdEEvRNSt3__16vectorIT_NS1_9allocatorIS3_EEEES3_E3gen@GOTPCREL(%rip), %rdi
	movl	%edx, %ecx
	movq	%rax, -664(%rbp)
	movl	%ecx, -668(%rbp)
	callq	___cxa_guard_abort
	jmp	LBB48_24
LBB48_13:                               ##   in Loop: Header=BB48_9 Depth=1
	leaq	-736(%rbp), %rax
	movq	%rax, -144(%rbp)
	movq	-144(%rbp), %rax
	movq	(%rax), %rax
	movsd	(%rax), %xmm0
	movsd	%xmm0, -720(%rbp)
LBB48_14:                               ##   in Loop: Header=BB48_9 Depth=1
	leaq	-736(%rbp), %rax
	movq	%rax, -152(%rbp)
	movq	-152(%rbp), %rax
	movq	(%rax), %rax
	movsd	(%rax), %xmm0
	movsd	-712(%rbp), %xmm1
	addsd	%xmm0, %xmm1
	movsd	%xmm1, -712(%rbp)
## BB#15:                               ##   in Loop: Header=BB48_9 Depth=1
	leaq	-736(%rbp), %rax
	movq	%rax, -160(%rbp)
	movq	-160(%rbp), %rax
	movq	(%rax), %rcx
	addq	$8, %rcx
	movq	%rcx, (%rax)
	jmp	LBB48_9
LBB48_16:
	movq	-648(%rbp), %rax
	movq	%rax, -168(%rbp)
	movq	(%rax), %rcx
	movq	8(%rax), %rax
	subq	%rcx, %rax
	sarq	$3, %rax
	movd	%rax, %xmm0
	movaps	LCPI48_2(%rip), %xmm1
	punpckldq	%xmm1, %xmm0    ## xmm0 = xmm0[0],xmm1[0],xmm0[1],xmm1[1]
	movapd	LCPI48_3(%rip), %xmm1
	subpd	%xmm1, %xmm0
	haddpd	%xmm0, %xmm0
	movsd	-712(%rbp), %xmm1
	divsd	%xmm0, %xmm1
	movsd	%xmm1, -712(%rbp)
	movsd	-712(%rbp), %xmm0
	movsd	-728(%rbp), %xmm1
	subsd	%xmm0, %xmm1
	movsd	%xmm1, -728(%rbp)
	movsd	-720(%rbp), %xmm0
	subsd	-712(%rbp), %xmm0
	movsd	%xmm0, -248(%rbp)
	movsd	-248(%rbp), %xmm0
	movsd	LCPI48_1(%rip), %xmm1
	andpd	%xmm1, %xmm0
	movsd	%xmm0, -720(%rbp)
	movsd	-728(%rbp), %xmm0
	ucomisd	-720(%rbp), %xmm0
	jbe	LBB48_18
## BB#17:
	movsd	-728(%rbp), %xmm0
	movsd	%xmm0, -832(%rbp)       ## 8-byte Spill
	jmp	LBB48_19
LBB48_18:
	movsd	-720(%rbp), %xmm0
	movsd	%xmm0, -832(%rbp)       ## 8-byte Spill
LBB48_19:
	movsd	-832(%rbp), %xmm0       ## 8-byte Reload
	leaq	-360(%rbp), %rax
	leaq	-288(%rbp), %rcx
	movsd	%xmm0, -752(%rbp)
	movsd	-752(%rbp), %xmm0
	movsd	-656(%rbp), %xmm1
	sqrtsd	%xmm1, %xmm1
	divsd	%xmm1, %xmm0
	movsd	%xmm0, -760(%rbp)
	movq	-648(%rbp), %rdx
	movq	%rdx, -768(%rbp)
	movq	-768(%rbp), %rdx
	movq	%rdx, -320(%rbp)
	movq	-320(%rbp), %rdx
	movq	(%rdx), %rsi
	movq	%rdx, -296(%rbp)
	movq	%rsi, -304(%rbp)
	movq	-304(%rbp), %rdx
	movq	%rcx, -272(%rbp)
	movq	%rdx, -280(%rbp)
	movq	-272(%rbp), %rcx
	movq	-280(%rbp), %rdx
	movq	%rcx, -256(%rbp)
	movq	%rdx, -264(%rbp)
	movq	-256(%rbp), %rcx
	movq	-264(%rbp), %rdx
	movq	%rdx, (%rcx)
	movq	-288(%rbp), %rcx
	movq	%rcx, -312(%rbp)
	movq	-312(%rbp), %rcx
	movq	%rcx, -776(%rbp)
	movq	-768(%rbp), %rcx
	movq	%rcx, -392(%rbp)
	movq	-392(%rbp), %rcx
	movq	8(%rcx), %rdx
	movq	%rcx, -368(%rbp)
	movq	%rdx, -376(%rbp)
	movq	-376(%rbp), %rcx
	movq	%rax, -344(%rbp)
	movq	%rcx, -352(%rbp)
	movq	-344(%rbp), %rax
	movq	-352(%rbp), %rcx
	movq	%rax, -328(%rbp)
	movq	%rcx, -336(%rbp)
	movq	-328(%rbp), %rax
	movq	-336(%rbp), %rcx
	movq	%rcx, (%rax)
	movq	-360(%rbp), %rax
	movq	%rax, -384(%rbp)
	movq	-384(%rbp), %rax
	movq	%rax, -784(%rbp)
LBB48_20:                               ## =>This Inner Loop Header: Depth=1
	leaq	-784(%rbp), %rax
	leaq	-776(%rbp), %rcx
	movq	%rcx, -432(%rbp)
	movq	%rax, -440(%rbp)
	movq	-432(%rbp), %rax
	movq	-440(%rbp), %rcx
	movq	%rax, -416(%rbp)
	movq	%rcx, -424(%rbp)
	movq	-416(%rbp), %rax
	movq	%rax, -408(%rbp)
	movq	-408(%rbp), %rax
	movq	(%rax), %rax
	movq	-424(%rbp), %rcx
	movq	%rcx, -400(%rbp)
	movq	-400(%rbp), %rcx
	cmpq	(%rcx), %rax
	sete	%dl
	xorb	$1, %dl
	testb	$1, %dl
	jne	LBB48_21
	jmp	LBB48_23
LBB48_21:                               ##   in Loop: Header=BB48_20 Depth=1
	movq	__ZZN3fid8addnoiseIdEEvRNSt3__16vectorIT_NS1_9allocatorIS3_EEEES3_E3gen@GOTPCREL(%rip), %rax
	leaq	-704(%rbp), %rcx
	leaq	-776(%rbp), %rdx
	movq	%rdx, -448(%rbp)
	movq	-448(%rbp), %rdx
	movq	(%rdx), %rdx
	movq	%rdx, -792(%rbp)
	movq	%rcx, -552(%rbp)
	movq	%rax, -560(%rbp)
	movq	-552(%rbp), %rax
	movq	-560(%rbp), %rsi
	movq	%rax, %rdi
	movq	%rax, %rdx
	callq	__ZNSt3__119normal_distributionIdEclINS_26linear_congruential_engineIjLj48271ELj0ELj2147483647EEEEEdRT_RKNS1_10param_typeE
	mulsd	-760(%rbp), %xmm0
	movq	-792(%rbp), %rax
	movsd	(%rax), %xmm1
	addsd	%xmm0, %xmm1
	movsd	%xmm1, (%rax)
## BB#22:                               ##   in Loop: Header=BB48_20 Depth=1
	leaq	-776(%rbp), %rax
	movq	%rax, -568(%rbp)
	movq	-568(%rbp), %rax
	movq	(%rax), %rcx
	addq	$8, %rcx
	movq	%rcx, (%rax)
	jmp	LBB48_20
LBB48_23:
	addq	$832, %rsp              ## imm = 0x340
	popq	%rbp
	retq
LBB48_24:
	movq	-664(%rbp), %rdi
	callq	__Unwind_Resume
	.cfi_endproc
Leh_func_end48:
	.section	__TEXT,__gcc_except_tab
	.align	2
GCC_except_table48:
Lexception48:
	.byte	255                     ## @LPStart Encoding = omit
	.byte	155                     ## @TType Encoding = indirect pcrel sdata4
	.asciz	"\234"                  ## @TType base offset
	.byte	3                       ## Call site Encoding = udata4
	.byte	26                      ## Call site table length
Lset35 = Ltmp208-Leh_func_begin48       ## >> Call Site 1 <<
	.long	Lset35
Lset36 = Ltmp209-Ltmp208                ##   Call between Ltmp208 and Ltmp209
	.long	Lset36
Lset37 = Ltmp210-Leh_func_begin48       ##     jumps to Ltmp210
	.long	Lset37
	.byte	0                       ##   On action: cleanup
Lset38 = Ltmp209-Leh_func_begin48       ## >> Call Site 2 <<
	.long	Lset38
Lset39 = Leh_func_end48-Ltmp209         ##   Call between Ltmp209 and Leh_func_end48
	.long	Lset39
	.long	0                       ##     has no landing pad
	.byte	0                       ##   On action: cleanup
	.align	2

	.section	__TEXT,__textcoal_nt,coalesced,pure_instructions
	.globl	__ZN3fid5floorIdEEvRNSt3__16vectorIT_NS1_9allocatorIS3_EEEE
	.weak_def_can_be_hidden	__ZN3fid5floorIdEEvRNSt3__16vectorIT_NS1_9allocatorIS3_EEEE
	.align	4, 0x90
__ZN3fid5floorIdEEvRNSt3__16vectorIT_NS1_9allocatorIS3_EEEE: ## @_ZN3fid5floorIdEEvRNSt3__16vectorIT_NS1_9allocatorIS3_EEEE
	.cfi_startproc
## BB#0:
	pushq	%rbp
Ltmp214:
	.cfi_def_cfa_offset 16
Ltmp215:
	.cfi_offset %rbp, -16
	movq	%rsp, %rbp
Ltmp216:
	.cfi_def_cfa_register %rbp
	subq	$256, %rsp              ## imm = 0x100
	leaq	-184(%rbp), %rax
	movq	%rdi, -224(%rbp)
	movq	-224(%rbp), %rdi
	movq	%rdi, -216(%rbp)
	movq	-216(%rbp), %rdi
	movq	(%rdi), %rcx
	movq	%rdi, -192(%rbp)
	movq	%rcx, -200(%rbp)
	movq	-200(%rbp), %rcx
	movq	%rax, -168(%rbp)
	movq	%rcx, -176(%rbp)
	movq	-168(%rbp), %rax
	movq	-176(%rbp), %rcx
	movq	%rax, -152(%rbp)
	movq	%rcx, -160(%rbp)
	movq	-152(%rbp), %rax
	movq	-160(%rbp), %rcx
	movq	%rcx, (%rax)
	movq	-184(%rbp), %rax
	movq	%rax, -208(%rbp)
	movq	-208(%rbp), %rax
	movq	%rax, -232(%rbp)
LBB49_1:                                ## =>This Inner Loop Header: Depth=1
	leaq	-240(%rbp), %rax
	leaq	-232(%rbp), %rcx
	leaq	-40(%rbp), %rdx
	movq	-224(%rbp), %rsi
	movq	%rsi, -72(%rbp)
	movq	-72(%rbp), %rsi
	movq	8(%rsi), %rdi
	movq	%rsi, -48(%rbp)
	movq	%rdi, -56(%rbp)
	movq	-56(%rbp), %rsi
	movq	%rdx, -24(%rbp)
	movq	%rsi, -32(%rbp)
	movq	-24(%rbp), %rdx
	movq	-32(%rbp), %rsi
	movq	%rdx, -8(%rbp)
	movq	%rsi, -16(%rbp)
	movq	-8(%rbp), %rdx
	movq	-16(%rbp), %rsi
	movq	%rsi, (%rdx)
	movq	-40(%rbp), %rdx
	movq	%rdx, -64(%rbp)
	movq	-64(%rbp), %rdx
	movq	%rdx, -240(%rbp)
	movq	%rcx, -112(%rbp)
	movq	%rax, -120(%rbp)
	movq	-112(%rbp), %rax
	movq	-120(%rbp), %rcx
	movq	%rax, -96(%rbp)
	movq	%rcx, -104(%rbp)
	movq	-96(%rbp), %rax
	movq	%rax, -88(%rbp)
	movq	-88(%rbp), %rax
	movq	(%rax), %rax
	movq	-104(%rbp), %rcx
	movq	%rcx, -80(%rbp)
	movq	-80(%rbp), %rcx
	cmpq	(%rcx), %rax
	sete	%r8b
	xorb	$1, %r8b
	testb	$1, %r8b
	jne	LBB49_2
	jmp	LBB49_4
LBB49_2:                                ##   in Loop: Header=BB49_1 Depth=1
	leaq	-232(%rbp), %rax
	movq	%rax, -128(%rbp)
	movq	-128(%rbp), %rcx
	movq	(%rcx), %rcx
	movsd	(%rcx), %xmm0
	movq	%rax, -248(%rbp)        ## 8-byte Spill
	callq	_floor
	movq	-248(%rbp), %rax        ## 8-byte Reload
	movq	%rax, -136(%rbp)
	movq	-136(%rbp), %rcx
	movq	(%rcx), %rcx
	movsd	%xmm0, (%rcx)
## BB#3:                                ##   in Loop: Header=BB49_1 Depth=1
	leaq	-232(%rbp), %rax
	movq	%rax, -144(%rbp)
	movq	-144(%rbp), %rax
	movq	(%rax), %rcx
	addq	$8, %rcx
	movq	%rcx, (%rax)
	jmp	LBB49_1
LBB49_4:
	addq	$256, %rsp              ## imm = 0x100
	popq	%rbp
	retq
	.cfi_endproc

	.section	__TEXT,__text,regular,pure_instructions
	.globl	__ZN3fid10FidFactory11SimulateFidERNSt3__16vectorIdNS1_9allocatorIdEEEES6_bb
	.align	4, 0x90
__ZN3fid10FidFactory11SimulateFidERNSt3__16vectorIdNS1_9allocatorIdEEEES6_bb: ## @_ZN3fid10FidFactory11SimulateFidERNSt3__16vectorIdNS1_9allocatorIdEEEES6_bb
	.cfi_startproc
	.cfi_personality 155, ___gxx_personality_v0
Leh_func_begin50:
	.cfi_lsda 16, Lexception50
## BB#0:
	pushq	%rbp
Ltmp220:
	.cfi_def_cfa_offset 16
Ltmp221:
	.cfi_offset %rbp, -16
	movq	%rsp, %rbp
Ltmp222:
	.cfi_def_cfa_register %rbp
	subq	$2320, %rsp             ## imm = 0x910
	movb	%r8b, %al
	movb	%cl, %r9b
	movq	__ZN3fid3sim11num_samplesE@GOTPCREL(%rip), %r10
	movq	%rdi, -1760(%rbp)
	movq	%rsi, -1768(%rbp)
	movq	%rdx, -1776(%rbp)
	andb	$1, %r9b
	movb	%r9b, -1777(%rbp)
	andb	$1, %al
	movb	%al, -1778(%rbp)
	movq	-1760(%rbp), %rdx
	movq	-1776(%rbp), %rdi
	movslq	(%r10), %rsi
	movq	%rdx, -2176(%rbp)       ## 8-byte Spill
	callq	__ZNSt3__16vectorIdNS_9allocatorIdEEE7reserveEm
	movq	__ZN3fid3sim11num_samplesE@GOTPCREL(%rip), %rdx
	movq	-1768(%rbp), %rdi
	movslq	(%rdx), %rsi
	callq	__ZNSt3__16vectorIdNS_9allocatorIdEEE7reserveEm
	movq	__ZN3fid3sim6spin_0E@GOTPCREL(%rip), %rdx
	movq	-2176(%rbp), %rsi       ## 8-byte Reload
	addq	$40, %rsi
	movq	%rsi, -1744(%rbp)
	movq	%rdx, -1752(%rbp)
	movq	-1744(%rbp), %rdx
	cmpq	-1752(%rbp), %rdx
	movq	%rdx, -2184(%rbp)       ## 8-byte Spill
	je	LBB50_2
## BB#1:
	movq	-2184(%rbp), %rax       ## 8-byte Reload
	movq	-1752(%rbp), %rcx
	movq	%rax, -1720(%rbp)
	movq	%rcx, -1728(%rbp)
	movq	-1720(%rbp), %rax
	movq	-1728(%rbp), %rcx
	movq	%rax, -1704(%rbp)
	movq	%rcx, -1712(%rbp)
	movq	-1752(%rbp), %rax
	movq	(%rax), %rsi
	movq	-1752(%rbp), %rax
	movq	8(%rax), %rdx
	movq	-2184(%rbp), %rdi       ## 8-byte Reload
	callq	__ZNSt3__16vectorIdNS_9allocatorIdEEE6assignIPdEENS_9enable_ifIXaasr21__is_forward_iteratorIT_EE5valuesr16is_constructibleIdNS_15iterator_traitsIS7_E9referenceEEE5valueEvE4typeES7_S7_
LBB50_2:                                ## %_ZNSt3__16vectorIdNS_9allocatorIdEEEaSERKS3_.exit
	leaq	-2032(%rbp), %rdi
	leaq	-2040(%rbp), %rsi
	callq	__ZN5boost7numeric6odeint12runge_kutta4INSt3__16vectorIdNS3_9allocatorIdEEEEdS7_dNS1_13range_algebraENS1_18default_operationsENS1_17initially_resizerEEC1ERKS8_
	leaq	__ZN3fid10FidFactory5BlochERKNSt3__16vectorIdNS1_9allocatorIdEEEERS5_d(%rip), %rsi
	movq	%rsi, -2080(%rbp)
	movq	$0, -2072(%rbp)
	movq	-2176(%rbp), %rsi       ## 8-byte Reload
	movq	%rsi, -1696(%rbp)
	leaq	-1688(%rbp), %rdi
	movq	%rdi, -1672(%rbp)
	movq	%rsi, -1680(%rbp)
	movq	-1672(%rbp), %rdi
	movq	%rdi, -1656(%rbp)
	movq	%rsi, -1664(%rbp)
	movq	-1656(%rbp), %rdi
	movq	%rsi, -1648(%rbp)
	movq	%rsi, (%rdi)
	movq	-1688(%rbp), %rdi
	movq	%rdi, -2088(%rbp)
	leaq	-2080(%rbp), %rdi
	movq	%rdi, -1608(%rbp)
	leaq	-2088(%rbp), %rdi
	movq	%rdi, -1616(%rbp)
	movq	__ZNSt3__112placeholders2_1E@GOTPCREL(%rip), %rdi
	movq	%rdi, -1624(%rbp)
	movq	__ZNSt3__112placeholders2_2E@GOTPCREL(%rip), %rdi
	movq	%rdi, -1632(%rbp)
	movq	__ZNSt3__112placeholders2_3E@GOTPCREL(%rip), %rdi
	movq	%rdi, -1640(%rbp)
	movq	-1608(%rbp), %rdi
	movq	%rdi, -1600(%rbp)
	movq	-1616(%rbp), %rax
	movq	%rax, -1016(%rbp)
	movq	-1624(%rbp), %rcx
	movq	%rcx, -1024(%rbp)
	movq	-1632(%rbp), %rdx
	movq	%rdx, -1032(%rbp)
	movq	-1640(%rbp), %r8
	movq	%r8, -1040(%rbp)
	leaq	-2064(%rbp), %r9
	movq	%r9, -1552(%rbp)
	movq	%rdi, -1560(%rbp)
	movq	%rax, -1568(%rbp)
	movq	%rcx, -1576(%rbp)
	movq	%rdx, -1584(%rbp)
	movq	%r8, -1592(%rbp)
	movq	-1552(%rbp), %rax
	movq	-1560(%rbp), %rcx
	movq	-1568(%rbp), %rdx
	movq	-1576(%rbp), %rdi
	movq	-1584(%rbp), %r9
	movq	%rax, -1504(%rbp)
	movq	%rcx, -1512(%rbp)
	movq	%rdx, -1520(%rbp)
	movq	%rdi, -1528(%rbp)
	movq	%r9, -1536(%rbp)
	movq	%r8, -1544(%rbp)
	movq	-1504(%rbp), %rax
	movq	-1512(%rbp), %rcx
	movq	%rcx, -1496(%rbp)
	movq	(%rcx), %rdx
	movq	8(%rcx), %rcx
	movq	%rcx, 8(%rax)
	movq	%rdx, (%rax)
	addq	$16, %rax
	movq	-1520(%rbp), %rcx
	movq	%rcx, -1048(%rbp)
	movq	-1048(%rbp), %rcx
	movq	-1528(%rbp), %rdx
	movq	%rdx, -1056(%rbp)
	movq	-1056(%rbp), %rdx
	movq	-1536(%rbp), %rdi
	movq	%rdi, -1064(%rbp)
	movq	-1064(%rbp), %rdi
	movq	-1544(%rbp), %r8
	movq	%r8, -1072(%rbp)
	movq	-1072(%rbp), %r8
	movq	%rax, -1456(%rbp)
	movq	%rcx, -1464(%rbp)
	movq	%rdx, -1472(%rbp)
	movq	%rdi, -1480(%rbp)
	movq	%r8, -1488(%rbp)
	movq	-1456(%rbp), %rax
	movq	-1464(%rbp), %rcx
	movq	-1472(%rbp), %rdx
	movq	-1480(%rbp), %rdi
	movq	-1488(%rbp), %r8
	movq	%rax, -1384(%rbp)
	movq	%rcx, -1392(%rbp)
	movq	%rdx, -1400(%rbp)
	movq	%rdi, -1408(%rbp)
	movq	%r8, -1416(%rbp)
	movq	-1384(%rbp), %rax
	movq	-1392(%rbp), %rcx
	movq	%rcx, -1376(%rbp)
	movq	-1376(%rbp), %rcx
	movq	-1400(%rbp), %rdx
	movq	%rdx, -1080(%rbp)
	movq	-1080(%rbp), %rdx
	movq	-1408(%rbp), %rdi
	movq	%rdi, -1088(%rbp)
	movq	-1088(%rbp), %rdi
	movq	-1416(%rbp), %r8
	movq	%r8, -1096(%rbp)
	movq	-1096(%rbp), %r8
	movq	%rax, -1336(%rbp)
	movq	%rcx, -1344(%rbp)
	movq	%rdx, -1352(%rbp)
	movq	%rdi, -1360(%rbp)
	movq	%r8, -1368(%rbp)
	movq	-1336(%rbp), %rax
	movq	-1344(%rbp), %rcx
	movq	-1352(%rbp), %rdx
	movq	-1360(%rbp), %rdi
	movq	-1368(%rbp), %r8
	movq	%rax, -1264(%rbp)
	movq	%rcx, -1272(%rbp)
	movq	%rdx, -1280(%rbp)
	movq	%rdi, -1288(%rbp)
	movq	%r8, -1296(%rbp)
	movq	-1264(%rbp), %rax
	movq	%rax, %rcx
	movq	-1272(%rbp), %rdx
	movq	%rdx, -1224(%rbp)
	movq	-1224(%rbp), %rdx
	movq	%rcx, -1112(%rbp)
	movq	%rdx, -1120(%rbp)
	movq	-1112(%rbp), %rcx
	movq	-1120(%rbp), %rdx
	movq	%rdx, -1104(%rbp)
	movq	-1104(%rbp), %rdx
	movq	(%rdx), %rdx
	movq	%rdx, (%rcx)
	movq	%rax, %rcx
	movq	-1280(%rbp), %rdx
	movq	%rdx, -1128(%rbp)
	movq	-1128(%rbp), %rdx
	movq	%rcx, -1144(%rbp)
	movq	%rdx, -1152(%rbp)
	movq	-1152(%rbp), %rcx
	movq	%rcx, -1136(%rbp)
	movq	%rax, %rcx
	movq	-1288(%rbp), %rdx
	movq	%rdx, -1160(%rbp)
	movq	-1160(%rbp), %rdx
	movq	%rcx, -1176(%rbp)
	movq	%rdx, -1184(%rbp)
	movq	-1184(%rbp), %rcx
	movq	%rcx, -1168(%rbp)
	movq	-1296(%rbp), %rcx
	movq	%rcx, -1192(%rbp)
	movq	-1192(%rbp), %rcx
	movq	%rax, -1208(%rbp)
	movq	%rcx, -1216(%rbp)
	movq	-1216(%rbp), %rax
	movq	%rax, -1200(%rbp)
## BB#3:
	movq	-2176(%rbp), %rax       ## 8-byte Reload
	addq	$40, %rax
	movq	-2176(%rbp), %rcx       ## 8-byte Reload
	movsd	(%rcx), %xmm0
	movsd	8(%rcx), %xmm1
	movsd	16(%rcx), %xmm2
	leaq	__ZN3fid10FidFactory7PrinterERKNSt3__16vectorIdNS1_9allocatorIdEEEEd(%rip), %rdx
	movq	%rdx, -2144(%rbp)
	movq	$0, -2136(%rbp)
	movq	%rcx, -1008(%rbp)
	leaq	-1000(%rbp), %rdx
	movq	%rdx, -984(%rbp)
	movq	%rcx, -992(%rbp)
	movq	-984(%rbp), %rdx
	movq	%rdx, -968(%rbp)
	movq	%rcx, -976(%rbp)
	movq	-968(%rbp), %rdx
	movq	%rcx, -960(%rbp)
	movq	%rcx, (%rdx)
	movq	-1000(%rbp), %rdx
	movq	%rdx, -2152(%rbp)
	leaq	-2144(%rbp), %rdx
	movq	%rdx, -928(%rbp)
	leaq	-2152(%rbp), %rdx
	movq	%rdx, -936(%rbp)
	movq	__ZNSt3__112placeholders2_1E@GOTPCREL(%rip), %rdx
	movq	%rdx, -944(%rbp)
	movq	__ZNSt3__112placeholders2_2E@GOTPCREL(%rip), %rdx
	movq	%rdx, -952(%rbp)
	movq	-928(%rbp), %rdx
	movq	%rdx, -920(%rbp)
	movq	-936(%rbp), %rsi
	movq	%rsi, -440(%rbp)
	movq	-944(%rbp), %rdi
	movq	%rdi, -448(%rbp)
	movq	-952(%rbp), %r8
	movq	%r8, -456(%rbp)
	leaq	-2128(%rbp), %r9
	movq	%r9, -880(%rbp)
	movq	%rdx, -888(%rbp)
	movq	%rsi, -896(%rbp)
	movq	%rdi, -904(%rbp)
	movq	%r8, -912(%rbp)
	movq	-880(%rbp), %rdx
	movq	-888(%rbp), %rsi
	movq	-896(%rbp), %rdi
	movq	-904(%rbp), %r9
	movq	%rdx, -840(%rbp)
	movq	%rsi, -848(%rbp)
	movq	%rdi, -856(%rbp)
	movq	%r9, -864(%rbp)
	movq	%r8, -872(%rbp)
	movq	-840(%rbp), %rdx
	movq	-848(%rbp), %rsi
	movq	%rsi, -832(%rbp)
	movq	(%rsi), %rdi
	movq	8(%rsi), %rsi
	movq	%rsi, 8(%rdx)
	movq	%rdi, (%rdx)
	addq	$16, %rdx
	movq	-856(%rbp), %rsi
	movq	%rsi, -464(%rbp)
	movq	-464(%rbp), %rsi
	movq	-864(%rbp), %rdi
	movq	%rdi, -472(%rbp)
	movq	-472(%rbp), %rdi
	movq	-872(%rbp), %r8
	movq	%r8, -480(%rbp)
	movq	-480(%rbp), %r8
	movq	%rdx, -800(%rbp)
	movq	%rsi, -808(%rbp)
	movq	%rdi, -816(%rbp)
	movq	%r8, -824(%rbp)
	movq	-800(%rbp), %rdx
	movq	-808(%rbp), %rsi
	movq	-816(%rbp), %rdi
	movq	-824(%rbp), %r8
	movq	%rdx, -736(%rbp)
	movq	%rsi, -744(%rbp)
	movq	%rdi, -752(%rbp)
	movq	%r8, -760(%rbp)
	movq	-736(%rbp), %rdx
	movq	-744(%rbp), %rsi
	movq	%rsi, -728(%rbp)
	movq	-728(%rbp), %rsi
	movq	-752(%rbp), %rdi
	movq	%rdi, -488(%rbp)
	movq	-488(%rbp), %rdi
	movq	-760(%rbp), %r8
	movq	%r8, -496(%rbp)
	movq	-496(%rbp), %r8
	movq	%rdx, -696(%rbp)
	movq	%rsi, -704(%rbp)
	movq	%rdi, -712(%rbp)
	movq	%r8, -720(%rbp)
	movq	-696(%rbp), %rdx
	movq	-704(%rbp), %rsi
	movq	-712(%rbp), %rdi
	movq	-720(%rbp), %r8
	movq	%rdx, -632(%rbp)
	movq	%rsi, -640(%rbp)
	movq	%rdi, -648(%rbp)
	movq	%r8, -656(%rbp)
	movq	-632(%rbp), %rdx
	movq	%rdx, %rsi
	movq	-640(%rbp), %rdi
	movq	%rdi, -592(%rbp)
	movq	-592(%rbp), %rdi
	movq	%rsi, -512(%rbp)
	movq	%rdi, -520(%rbp)
	movq	-512(%rbp), %rsi
	movq	-520(%rbp), %rdi
	movq	%rdi, -504(%rbp)
	movq	-504(%rbp), %rdi
	movq	(%rdi), %rdi
	movq	%rdi, (%rsi)
	movq	%rdx, %rsi
	movq	-648(%rbp), %rdi
	movq	%rdi, -528(%rbp)
	movq	-528(%rbp), %rdi
	movq	%rsi, -544(%rbp)
	movq	%rdi, -552(%rbp)
	movq	-552(%rbp), %rsi
	movq	%rsi, -536(%rbp)
	movq	-656(%rbp), %rsi
	movq	%rsi, -560(%rbp)
	movq	-560(%rbp), %rsi
	movq	%rdx, -576(%rbp)
	movq	%rsi, -584(%rbp)
	movq	-584(%rbp), %rdx
	movq	%rdx, -568(%rbp)
	movq	%rax, -2192(%rbp)       ## 8-byte Spill
	movsd	%xmm0, -2200(%rbp)      ## 8-byte Spill
	movsd	%xmm1, -2208(%rbp)      ## 8-byte Spill
	movsd	%xmm2, -2216(%rbp)      ## 8-byte Spill
## BB#4:
Ltmp217:
	movq	-2112(%rbp), %rax
	movq	%rsp, %rcx
	movq	%rax, 40(%rcx)
	movq	-2128(%rbp), %rax
	movq	-2120(%rbp), %rdx
	movq	%rdx, 32(%rcx)
	movq	%rax, 24(%rcx)
	movq	-2048(%rbp), %rax
	movq	%rax, 16(%rcx)
	movq	-2064(%rbp), %rax
	movq	-2056(%rbp), %rdx
	movq	%rdx, 8(%rcx)
	movq	%rax, (%rcx)
	leaq	-2032(%rbp), %rdi
	movq	-2192(%rbp), %rsi       ## 8-byte Reload
	movsd	-2200(%rbp), %xmm0      ## 8-byte Reload
	movsd	-2208(%rbp), %xmm1      ## 8-byte Reload
	movsd	-2216(%rbp), %xmm2      ## 8-byte Reload
	callq	__ZN5boost7numeric6odeint15integrate_constINS1_12runge_kutta4INSt3__16vectorIdNS4_9allocatorIdEEEEdS8_dNS1_13range_algebraENS1_18default_operationsENS1_17initially_resizerEEENS4_6__bindIMN3fid10FidFactoryEFvRKS8_RS8_dEJNS4_17reference_wrapperISF_EERNS4_12placeholders4__phILi1EEERNSO_ILi2EEERNSO_ILi3EEEEEES8_dNSD_IMSF_FvSH_dEJSM_SQ_SS_EEEEEmT_T0_RT1_T2_S13_S13_T3_
Ltmp218:
	movq	%rax, -2224(%rbp)       ## 8-byte Spill
	jmp	LBB50_5
LBB50_5:
	leaq	-2032(%rbp), %rdi
	callq	__ZN5boost7numeric6odeint12runge_kutta4INSt3__16vectorIdNS3_9allocatorIdEEEEdS7_dNS1_13range_algebraENS1_18default_operationsENS1_17initially_resizerEED1Ev
	xorl	%eax, %eax
	movl	%eax, %esi
	movq	-1776(%rbp), %rdi
	callq	__ZNSt3__16vectorIdNS_9allocatorIdEEE6resizeEm
	xorl	%eax, %eax
	movl	%eax, %esi
	movq	-1768(%rbp), %rdi
	callq	__ZNSt3__16vectorIdNS_9allocatorIdEEE6resizeEm
	movl	$0, -2156(%rbp)
LBB50_6:                                ## =>This Inner Loop Header: Depth=1
	movq	__ZN3fid3sim11num_samplesE@GOTPCREL(%rip), %rax
	movl	-2156(%rbp), %ecx
	cmpl	(%rax), %ecx
	jge	LBB50_20
## BB#7:                                ##   in Loop: Header=BB50_6 Depth=1
	movq	-1776(%rbp), %rax
	movq	-2176(%rbp), %rcx       ## 8-byte Reload
	addq	$88, %rcx
	movl	-2156(%rbp), %edx
	movq	-2176(%rbp), %rsi       ## 8-byte Reload
	imull	24(%rsi), %edx
	movslq	%edx, %rdi
	movq	%rcx, -216(%rbp)
	movq	%rdi, -224(%rbp)
	movq	-216(%rbp), %rcx
	movq	-224(%rbp), %rdi
	movq	(%rcx), %rcx
	shlq	$3, %rdi
	addq	%rdi, %rcx
	movq	%rax, -200(%rbp)
	movq	%rcx, -208(%rbp)
	movq	-200(%rbp), %rax
	movq	8(%rax), %rcx
	movq	%rax, %rdi
	movq	%rdi, -192(%rbp)
	movq	-192(%rbp), %rdi
	addq	$16, %rdi
	movq	%rdi, -184(%rbp)
	movq	-184(%rbp), %rdi
	movq	%rdi, -176(%rbp)
	movq	-176(%rbp), %rdi
	cmpq	(%rdi), %rcx
	movq	%rax, -2232(%rbp)       ## 8-byte Spill
	je	LBB50_11
## BB#8:                                ##   in Loop: Header=BB50_6 Depth=1
	movl	$1, %eax
	movl	%eax, %esi
	movq	-2232(%rbp), %rdi       ## 8-byte Reload
	callq	__ZNSt3__16vectorIdNS_9allocatorIdEEE19__annotate_increaseEm
	movq	-2232(%rbp), %rsi       ## 8-byte Reload
	movq	%rsi, -168(%rbp)
	movq	-168(%rbp), %rsi
	addq	$16, %rsi
	movq	%rsi, -160(%rbp)
	movq	-160(%rbp), %rsi
	movq	%rsi, -152(%rbp)
	movq	-152(%rbp), %rsi
	movq	-2232(%rbp), %rdi       ## 8-byte Reload
	movq	8(%rdi), %rcx
	movq	%rcx, -24(%rbp)
	movq	-24(%rbp), %rcx
	movq	-208(%rbp), %rdx
	movq	%rsi, -112(%rbp)
	movq	%rcx, -120(%rbp)
	movq	%rdx, -128(%rbp)
	movq	-112(%rbp), %rcx
	movq	-120(%rbp), %rdx
	movq	-128(%rbp), %rsi
	movq	%rsi, -104(%rbp)
	movq	-104(%rbp), %rsi
	movq	%rcx, -80(%rbp)
	movq	%rdx, -88(%rbp)
	movq	%rsi, -96(%rbp)
	movq	-80(%rbp), %rcx
	movq	-88(%rbp), %rdx
	movq	-96(%rbp), %rsi
	movq	%rsi, -64(%rbp)
	movq	-64(%rbp), %rsi
	movq	%rcx, -40(%rbp)
	movq	%rdx, -48(%rbp)
	movq	%rsi, -56(%rbp)
	movq	-48(%rbp), %rcx
	cmpq	$0, %rcx
	movq	%rcx, -2240(%rbp)       ## 8-byte Spill
	je	LBB50_10
## BB#9:                                ##   in Loop: Header=BB50_6 Depth=1
	movq	-2240(%rbp), %rax       ## 8-byte Reload
	movq	-56(%rbp), %rcx
	movq	%rcx, -32(%rbp)
	movq	-32(%rbp), %rcx
	movsd	(%rcx), %xmm0
	movq	-2240(%rbp), %rcx       ## 8-byte Reload
	movsd	%xmm0, (%rcx)
	movq	%rax, -2248(%rbp)       ## 8-byte Spill
LBB50_10:                               ## %_ZNSt3__116allocator_traitsINS_9allocatorIdEEE9constructIdJRKdEEEvRS2_PT_DpOT0_.exit.i
                                        ##   in Loop: Header=BB50_6 Depth=1
	movq	-2232(%rbp), %rax       ## 8-byte Reload
	movq	8(%rax), %rcx
	addq	$8, %rcx
	movq	%rcx, 8(%rax)
	jmp	LBB50_12
LBB50_11:                               ##   in Loop: Header=BB50_6 Depth=1
	movq	-208(%rbp), %rsi
	movq	-2232(%rbp), %rdi       ## 8-byte Reload
	callq	__ZNSt3__16vectorIdNS_9allocatorIdEEE21__push_back_slow_pathIRKdEEvOT_
LBB50_12:                               ## %_ZNSt3__16vectorIdNS_9allocatorIdEEE9push_backERKd.exit
                                        ##   in Loop: Header=BB50_6 Depth=1
	leaq	-2168(%rbp), %rax
	movq	__ZN3fid3sim8baselineE@GOTPCREL(%rip), %rcx
	movq	-1768(%rbp), %rdx
	movq	-2176(%rbp), %rsi       ## 8-byte Reload
	addq	$64, %rsi
	movl	-2156(%rbp), %edi
	movq	-2176(%rbp), %r8        ## 8-byte Reload
	imull	24(%r8), %edi
	movslq	%edi, %r9
	movq	%rsi, -8(%rbp)
	movq	%r9, -16(%rbp)
	movq	-8(%rbp), %rsi
	movq	-16(%rbp), %r9
	movq	(%rsi), %rsi
	movsd	(%rsi,%r9,8), %xmm0
	addsd	(%rcx), %xmm0
	movsd	%xmm0, -2168(%rbp)
	movq	%rdx, -424(%rbp)
	movq	%rax, -432(%rbp)
	movq	-424(%rbp), %rax
	movq	8(%rax), %rcx
	movq	%rax, %rdx
	movq	%rdx, -416(%rbp)
	movq	-416(%rbp), %rdx
	addq	$16, %rdx
	movq	%rdx, -408(%rbp)
	movq	-408(%rbp), %rdx
	movq	%rdx, -400(%rbp)
	movq	-400(%rbp), %rdx
	cmpq	(%rdx), %rcx
	movq	%rax, -2256(%rbp)       ## 8-byte Spill
	jae	LBB50_16
## BB#13:                               ##   in Loop: Header=BB50_6 Depth=1
	movl	$1, %eax
	movl	%eax, %esi
	movq	-2256(%rbp), %rdi       ## 8-byte Reload
	callq	__ZNSt3__16vectorIdNS_9allocatorIdEEE19__annotate_increaseEm
	movq	-2256(%rbp), %rsi       ## 8-byte Reload
	movq	%rsi, -392(%rbp)
	movq	-392(%rbp), %rsi
	addq	$16, %rsi
	movq	%rsi, -384(%rbp)
	movq	-384(%rbp), %rsi
	movq	%rsi, -376(%rbp)
	movq	-376(%rbp), %rsi
	movq	-2256(%rbp), %rdi       ## 8-byte Reload
	movq	8(%rdi), %rcx
	movq	%rcx, -232(%rbp)
	movq	-232(%rbp), %rcx
	movq	-432(%rbp), %rdx
	movq	%rdx, -240(%rbp)
	movq	-240(%rbp), %rdx
	movq	%rsi, -328(%rbp)
	movq	%rcx, -336(%rbp)
	movq	%rdx, -344(%rbp)
	movq	-328(%rbp), %rcx
	movq	-336(%rbp), %rdx
	movq	-344(%rbp), %rsi
	movq	%rsi, -320(%rbp)
	movq	-320(%rbp), %rsi
	movq	%rcx, -296(%rbp)
	movq	%rdx, -304(%rbp)
	movq	%rsi, -312(%rbp)
	movq	-296(%rbp), %rcx
	movq	-304(%rbp), %rdx
	movq	-312(%rbp), %rsi
	movq	%rsi, -280(%rbp)
	movq	-280(%rbp), %rsi
	movq	%rcx, -256(%rbp)
	movq	%rdx, -264(%rbp)
	movq	%rsi, -272(%rbp)
	movq	-264(%rbp), %rcx
	cmpq	$0, %rcx
	movq	%rcx, -2264(%rbp)       ## 8-byte Spill
	je	LBB50_15
## BB#14:                               ##   in Loop: Header=BB50_6 Depth=1
	movq	-2264(%rbp), %rax       ## 8-byte Reload
	movq	-272(%rbp), %rcx
	movq	%rcx, -248(%rbp)
	movq	-248(%rbp), %rcx
	movsd	(%rcx), %xmm0
	movq	-2264(%rbp), %rcx       ## 8-byte Reload
	movsd	%xmm0, (%rcx)
	movq	%rax, -2272(%rbp)       ## 8-byte Spill
LBB50_15:                               ## %_ZNSt3__116allocator_traitsINS_9allocatorIdEEE9constructIdJdEEEvRS2_PT_DpOT0_.exit.i
                                        ##   in Loop: Header=BB50_6 Depth=1
	movq	-2256(%rbp), %rax       ## 8-byte Reload
	movq	8(%rax), %rcx
	addq	$8, %rcx
	movq	%rcx, 8(%rax)
	jmp	LBB50_17
LBB50_16:                               ##   in Loop: Header=BB50_6 Depth=1
	movq	-432(%rbp), %rax
	movq	%rax, -368(%rbp)
	movq	-368(%rbp), %rsi
	movq	-2256(%rbp), %rdi       ## 8-byte Reload
	callq	__ZNSt3__16vectorIdNS_9allocatorIdEEE21__push_back_slow_pathIdEEvOT_
LBB50_17:                               ## %_ZNSt3__16vectorIdNS_9allocatorIdEEE9push_backEOd.exit
                                        ##   in Loop: Header=BB50_6 Depth=1
	jmp	LBB50_18
LBB50_18:                               ##   in Loop: Header=BB50_6 Depth=1
	movl	-2156(%rbp), %eax
	addl	$1, %eax
	movl	%eax, -2156(%rbp)
	jmp	LBB50_6
LBB50_19:
Ltmp219:
	leaq	-2032(%rbp), %rdi
	movl	%edx, %ecx
	movq	%rax, -2096(%rbp)
	movl	%ecx, -2100(%rbp)
	callq	__ZN5boost7numeric6odeint12runge_kutta4INSt3__16vectorIdNS3_9allocatorIdEEEEdS7_dNS1_13range_algebraENS1_18default_operationsENS1_17initially_resizerEED1Ev
	jmp	LBB50_25
LBB50_20:
	testb	$1, -1777(%rbp)
	je	LBB50_22
## BB#21:
	movq	__ZN3fid3sim3snrE@GOTPCREL(%rip), %rax
	movq	-1768(%rbp), %rdi
	movsd	(%rax), %xmm0
	callq	__ZN3fid8addnoiseIdEEvRNSt3__16vectorIT_NS1_9allocatorIS3_EEEES3_
LBB50_22:
	testb	$1, -1778(%rbp)
	je	LBB50_24
## BB#23:
	movq	-1768(%rbp), %rdi
	callq	__ZN3fid5floorIdEEvRNSt3__16vectorIT_NS1_9allocatorIS3_EEEE
LBB50_24:
	addq	$2320, %rsp             ## imm = 0x910
	popq	%rbp
	retq
LBB50_25:
	movq	-2096(%rbp), %rdi
	callq	__Unwind_Resume
	.cfi_endproc
Leh_func_end50:
	.section	__TEXT,__gcc_except_tab
	.align	2
GCC_except_table50:
Lexception50:
	.byte	255                     ## @LPStart Encoding = omit
	.byte	155                     ## @TType Encoding = indirect pcrel sdata4
	.byte	41                      ## @TType base offset
	.byte	3                       ## Call site Encoding = udata4
	.byte	39                      ## Call site table length
Lset40 = Leh_func_begin50-Leh_func_begin50 ## >> Call Site 1 <<
	.long	Lset40
Lset41 = Ltmp217-Leh_func_begin50       ##   Call between Leh_func_begin50 and Ltmp217
	.long	Lset41
	.long	0                       ##     has no landing pad
	.byte	0                       ##   On action: cleanup
Lset42 = Ltmp217-Leh_func_begin50       ## >> Call Site 2 <<
	.long	Lset42
Lset43 = Ltmp218-Ltmp217                ##   Call between Ltmp217 and Ltmp218
	.long	Lset43
Lset44 = Ltmp219-Leh_func_begin50       ##     jumps to Ltmp219
	.long	Lset44
	.byte	0                       ##   On action: cleanup
Lset45 = Ltmp218-Leh_func_begin50       ## >> Call Site 3 <<
	.long	Lset45
Lset46 = Leh_func_end50-Ltmp218         ##   Call between Ltmp218 and Leh_func_end50
	.long	Lset46
	.long	0                       ##     has no landing pad
	.byte	0                       ##   On action: cleanup
	.align	2

	.section	__TEXT,__textcoal_nt,coalesced,pure_instructions
	.globl	__ZN5boost7numeric6odeint15integrate_constINS1_12runge_kutta4INSt3__16vectorIdNS4_9allocatorIdEEEEdS8_dNS1_13range_algebraENS1_18default_operationsENS1_17initially_resizerEEENS4_6__bindIMN3fid10FidFactoryEFvRKS8_RS8_dEJNS4_17reference_wrapperISF_EERNS4_12placeholders4__phILi1EEERNSO_ILi2EEERNSO_ILi3EEEEEES8_dNSD_IMSF_FvSH_dEJSM_SQ_SS_EEEEEmT_T0_RT1_T2_S13_S13_T3_
	.weak_def_can_be_hidden	__ZN5boost7numeric6odeint15integrate_constINS1_12runge_kutta4INSt3__16vectorIdNS4_9allocatorIdEEEEdS8_dNS1_13range_algebraENS1_18default_operationsENS1_17initially_resizerEEENS4_6__bindIMN3fid10FidFactoryEFvRKS8_RS8_dEJNS4_17reference_wrapperISF_EERNS4_12placeholders4__phILi1EEERNSO_ILi2EEERNSO_ILi3EEEEEES8_dNSD_IMSF_FvSH_dEJSM_SQ_SS_EEEEEmT_T0_RT1_T2_S13_S13_T3_
	.align	4, 0x90
__ZN5boost7numeric6odeint15integrate_constINS1_12runge_kutta4INSt3__16vectorIdNS4_9allocatorIdEEEEdS8_dNS1_13range_algebraENS1_18default_operationsENS1_17initially_resizerEEENS4_6__bindIMN3fid10FidFactoryEFvRKS8_RS8_dEJNS4_17reference_wrapperISF_EERNS4_12placeholders4__phILi1EEERNSO_ILi2EEERNSO_ILi3EEEEEES8_dNSD_IMSF_FvSH_dEJSM_SQ_SS_EEEEEmT_T0_RT1_T2_S13_S13_T3_: ## @_ZN5boost7numeric6odeint15integrate_constINS1_12runge_kutta4INSt3__16vectorIdNS4_9allocatorIdEEEEdS8_dNS1_13range_algebraENS1_18default_operationsENS1_17initially_resizerEEENS4_6__bindIMN3fid10FidFactoryEFvRKS8_RS8_dEJNS4_17reference_wrapperISF_EERNS4_12placeholders4__phILi1EEERNSO_ILi2EEERNSO_ILi3EEEEEES8_dNSD_IMSF_FvSH_dEJSM_SQ_SS_EEEEEmT_T0_RT1_T2_S13_S13_T3_
	.cfi_startproc
	.cfi_personality 155, ___gxx_personality_v0
Leh_func_begin51:
	.cfi_lsda 16, Lexception51
## BB#0:
	pushq	%rbp
Ltmp226:
	.cfi_def_cfa_offset 16
Ltmp227:
	.cfi_offset %rbp, -16
	movq	%rsp, %rbp
Ltmp228:
	.cfi_def_cfa_register %rbp
	subq	$448, %rsp              ## imm = 0x1C0
	leaq	40(%rbp), %rax
	leaq	16(%rbp), %rcx
	movq	%rsi, -8(%rbp)
	movsd	%xmm0, -16(%rbp)
	movsd	%xmm1, -24(%rbp)
	movsd	%xmm2, -32(%rbp)
	leaq	-280(%rbp), %rsi
	movq	%rdi, -360(%rbp)        ## 8-byte Spill
	movq	%rsi, %rdi
	movq	-360(%rbp), %rdx        ## 8-byte Reload
	movq	%rsi, -368(%rbp)        ## 8-byte Spill
	movq	%rdx, %rsi
	movq	%rax, -376(%rbp)        ## 8-byte Spill
	movq	%rcx, -384(%rbp)        ## 8-byte Spill
	callq	__ZN5boost7numeric6odeint12runge_kutta4INSt3__16vectorIdNS3_9allocatorIdEEEEdS7_dNS1_13range_algebraENS1_18default_operationsENS1_17initially_resizerEEC1ERKSB_
	movq	-384(%rbp), %rax        ## 8-byte Reload
	movq	16(%rax), %rcx
	movq	%rcx, -288(%rbp)
	movq	(%rax), %rcx
	movq	8(%rax), %rdx
	movq	%rdx, -296(%rbp)
	movq	%rcx, -304(%rbp)
	movq	-8(%rbp), %rsi
	movsd	-16(%rbp), %xmm0
	movsd	-24(%rbp), %xmm1
	movsd	-32(%rbp), %xmm2
	movq	-376(%rbp), %rcx        ## 8-byte Reload
	movq	16(%rcx), %rdx
	movq	%rdx, -312(%rbp)
	movq	(%rcx), %rdx
	movq	8(%rcx), %rdi
	movq	%rdi, -320(%rbp)
	movq	%rdx, -328(%rbp)
Ltmp223:
	movq	-312(%rbp), %rdx
	movq	%rsp, %rdi
	movq	%rdx, 40(%rdi)
	movq	-328(%rbp), %rdx
	movq	-320(%rbp), %r8
	movq	%r8, 32(%rdi)
	movq	%rdx, 24(%rdi)
	movq	-288(%rbp), %rdx
	movq	%rdx, 16(%rdi)
	movq	-304(%rbp), %rdx
	movq	-296(%rbp), %r8
	movq	%r8, 8(%rdi)
	movq	%rdx, (%rdi)
	movq	-368(%rbp), %rdi        ## 8-byte Reload
	callq	__ZN5boost7numeric6odeint6detail15integrate_constINS1_12runge_kutta4INSt3__16vectorIdNS5_9allocatorIdEEEEdS9_dNS1_13range_algebraENS1_18default_operationsENS1_17initially_resizerEEENS5_6__bindIMN3fid10FidFactoryEFvRKS9_RS9_dEJNS5_17reference_wrapperISG_EERNS5_12placeholders4__phILi1EEERNSP_ILi2EEERNSP_ILi3EEEEEES9_dNSE_IMSG_FvSI_dEJSN_SR_ST_EEEEEmT_T0_RT1_T2_S14_S14_T3_NS1_11stepper_tagE
Ltmp224:
	movq	%rax, -392(%rbp)        ## 8-byte Spill
	jmp	LBB51_1
LBB51_1:
	leaq	-280(%rbp), %rdi
	callq	__ZN5boost7numeric6odeint12runge_kutta4INSt3__16vectorIdNS3_9allocatorIdEEEEdS7_dNS1_13range_algebraENS1_18default_operationsENS1_17initially_resizerEED1Ev
	movq	-392(%rbp), %rax        ## 8-byte Reload
	addq	$448, %rsp              ## imm = 0x1C0
	popq	%rbp
	retq
LBB51_2:
Ltmp225:
	leaq	-280(%rbp), %rdi
	movl	%edx, %ecx
	movq	%rax, -344(%rbp)
	movl	%ecx, -348(%rbp)
	callq	__ZN5boost7numeric6odeint12runge_kutta4INSt3__16vectorIdNS3_9allocatorIdEEEEdS7_dNS1_13range_algebraENS1_18default_operationsENS1_17initially_resizerEED1Ev
## BB#3:
	movq	-344(%rbp), %rdi
	callq	__Unwind_Resume
	.cfi_endproc
Leh_func_end51:
	.section	__TEXT,__gcc_except_tab
	.align	2
GCC_except_table51:
Lexception51:
	.byte	255                     ## @LPStart Encoding = omit
	.byte	155                     ## @TType Encoding = indirect pcrel sdata4
	.byte	41                      ## @TType base offset
	.byte	3                       ## Call site Encoding = udata4
	.byte	39                      ## Call site table length
Lset47 = Leh_func_begin51-Leh_func_begin51 ## >> Call Site 1 <<
	.long	Lset47
Lset48 = Ltmp223-Leh_func_begin51       ##   Call between Leh_func_begin51 and Ltmp223
	.long	Lset48
	.long	0                       ##     has no landing pad
	.byte	0                       ##   On action: cleanup
Lset49 = Ltmp223-Leh_func_begin51       ## >> Call Site 2 <<
	.long	Lset49
Lset50 = Ltmp224-Ltmp223                ##   Call between Ltmp223 and Ltmp224
	.long	Lset50
Lset51 = Ltmp225-Leh_func_begin51       ##     jumps to Ltmp225
	.long	Lset51
	.byte	0                       ##   On action: cleanup
Lset52 = Ltmp224-Leh_func_begin51       ## >> Call Site 3 <<
	.long	Lset52
Lset53 = Leh_func_end51-Ltmp224         ##   Call between Ltmp224 and Leh_func_end51
	.long	Lset53
	.long	0                       ##     has no landing pad
	.byte	0                       ##   On action: cleanup
	.align	2

	.section	__TEXT,__textcoal_nt,coalesced,pure_instructions
	.globl	__ZN5boost7numeric6odeint12runge_kutta4INSt3__16vectorIdNS3_9allocatorIdEEEEdS7_dNS1_13range_algebraENS1_18default_operationsENS1_17initially_resizerEEC1ERKS8_
	.weak_def_can_be_hidden	__ZN5boost7numeric6odeint12runge_kutta4INSt3__16vectorIdNS3_9allocatorIdEEEEdS7_dNS1_13range_algebraENS1_18default_operationsENS1_17initially_resizerEEC1ERKS8_
	.align	4, 0x90
__ZN5boost7numeric6odeint12runge_kutta4INSt3__16vectorIdNS3_9allocatorIdEEEEdS7_dNS1_13range_algebraENS1_18default_operationsENS1_17initially_resizerEEC1ERKS8_: ## @_ZN5boost7numeric6odeint12runge_kutta4INSt3__16vectorIdNS3_9allocatorIdEEEEdS7_dNS1_13range_algebraENS1_18default_operationsENS1_17initially_resizerEEC1ERKS8_
	.cfi_startproc
## BB#0:
	pushq	%rbp
Ltmp229:
	.cfi_def_cfa_offset 16
Ltmp230:
	.cfi_offset %rbp, -16
	movq	%rsp, %rbp
Ltmp231:
	.cfi_def_cfa_register %rbp
	subq	$16, %rsp
	movq	%rdi, -8(%rbp)
	movq	%rsi, -16(%rbp)
	movq	-8(%rbp), %rdi
	movq	-16(%rbp), %rsi
	callq	__ZN5boost7numeric6odeint12runge_kutta4INSt3__16vectorIdNS3_9allocatorIdEEEEdS7_dNS1_13range_algebraENS1_18default_operationsENS1_17initially_resizerEEC2ERKS8_
	addq	$16, %rsp
	popq	%rbp
	retq
	.cfi_endproc

	.section	__TEXT,__literal8,8byte_literals
	.align	3
LCPI53_0:
	.quad	4607182418800017408     ## double 1
	.section	__TEXT,__text,regular,pure_instructions
	.globl	__ZN3fid10FidFactory5BlochERKNSt3__16vectorIdNS1_9allocatorIdEEEERS5_d
	.align	4, 0x90
__ZN3fid10FidFactory5BlochERKNSt3__16vectorIdNS1_9allocatorIdEEEERS5_d: ## @_ZN3fid10FidFactory5BlochERKNSt3__16vectorIdNS1_9allocatorIdEEEERS5_d
	.cfi_startproc
	.cfi_personality 155, ___gxx_personality_v0
Leh_func_begin53:
	.cfi_lsda 16, Lexception53
## BB#0:
	pushq	%rbp
Ltmp247:
	.cfi_def_cfa_offset 16
Ltmp248:
	.cfi_offset %rbp, -16
	movq	%rsp, %rbp
Ltmp249:
	.cfi_def_cfa_register %rbp
	pushq	%rbx
	subq	$1144, %rsp             ## imm = 0x478
Ltmp250:
	.cfi_offset %rbx, -24
	movq	___stack_chk_guard@GOTPCREL(%rip), %rax
	movq	(%rax), %rax
	movq	%rax, -16(%rbp)
	movq	%rdi, -824(%rbp)
	movq	%rsi, -832(%rbp)
	movq	%rdx, -840(%rbp)
	movsd	%xmm0, -848(%rbp)
	movq	-824(%rbp), %rsi
	cmpb	$0, __ZGVZN3fid10FidFactory5BlochERKNSt3__16vectorIdNS1_9allocatorIdEEEERS5_dE1b(%rip)
	movq	%rsi, -944(%rbp)        ## 8-byte Spill
	jne	LBB53_9
## BB#1:
	leaq	__ZGVZN3fid10FidFactory5BlochERKNSt3__16vectorIdNS1_9allocatorIdEEEERS5_dE1b(%rip), %rdi
	callq	___cxa_guard_acquire
	cmpl	$0, %eax
	je	LBB53_9
## BB#2:
	leaq	-768(%rbp), %rax
	leaq	-696(%rbp), %rcx
	leaq	-720(%rbp), %rdx
	leaq	__ZZN3fid10FidFactory5BlochERKNSt3__16vectorIdNS1_9allocatorIdEEEERS5_dE1b(%rip), %rsi
	leaq	-40(%rbp), %rdi
	xorl	%r8d, %r8d
	movl	$24, %r9d
	movl	%r9d, %r10d
	movq	%rdi, %r11
	movq	%rdi, -952(%rbp)        ## 8-byte Spill
	movq	%r11, %rdi
	movq	%rsi, -960(%rbp)        ## 8-byte Spill
	movl	%r8d, %esi
	movq	%rdx, -968(%rbp)        ## 8-byte Spill
	movq	%r10, %rdx
	movq	%rax, -976(%rbp)        ## 8-byte Spill
	movq	%rcx, -984(%rbp)        ## 8-byte Spill
	callq	_memset
	movq	-952(%rbp), %rax        ## 8-byte Reload
	movq	%rax, -864(%rbp)
	movq	$3, -856(%rbp)
	movq	-864(%rbp), %rcx
	movq	-856(%rbp), %rdx
	movq	%rcx, -808(%rbp)
	movq	%rdx, -800(%rbp)
	movq	-960(%rbp), %rcx        ## 8-byte Reload
	movq	%rcx, -816(%rbp)
	movq	-816(%rbp), %rdx
	movq	-808(%rbp), %rdi
	movq	-800(%rbp), %r10
	movq	%rdi, -768(%rbp)
	movq	%r10, -760(%rbp)
	movq	%rdx, -776(%rbp)
	movq	-776(%rbp), %rdx
	movq	%rdx, %rdi
	movq	%rdi, -752(%rbp)
	movq	-752(%rbp), %rdi
	movq	%rdi, %r10
	movq	%r10, -744(%rbp)
	movq	$0, (%rdi)
	movq	$0, 8(%rdi)
	addq	$16, %rdi
	movq	%rdi, -728(%rbp)
	movq	$0, -736(%rbp)
	movq	-728(%rbp), %rdi
	movq	-736(%rbp), %r10
	movq	%rdi, -712(%rbp)
	movq	%r10, -720(%rbp)
	movq	-712(%rbp), %rdi
	movq	-968(%rbp), %r10        ## 8-byte Reload
	movq	%r10, -704(%rbp)
	movq	-704(%rbp), %r11
	movq	(%r11), %r11
	movq	%rdi, -688(%rbp)
	movq	%r11, -696(%rbp)
	movq	-688(%rbp), %rdi
	movq	%rdi, %r11
	movq	%r11, -680(%rbp)
	movq	-984(%rbp), %r11        ## 8-byte Reload
	movq	%r11, -672(%rbp)
	movq	-672(%rbp), %rbx
	movq	(%rbx), %rbx
	movq	%rbx, (%rdi)
	movq	-976(%rbp), %rdi        ## 8-byte Reload
	movq	%rdi, -664(%rbp)
	movq	-664(%rbp), %rbx
	cmpq	$0, 8(%rbx)
	movq	%rdx, -992(%rbp)        ## 8-byte Spill
	jbe	LBB53_7
## BB#3:
	leaq	-768(%rbp), %rax
	movq	%rax, -656(%rbp)
	movq	-760(%rbp), %rsi
Ltmp232:
	movq	-992(%rbp), %rdi        ## 8-byte Reload
	callq	__ZNSt3__16vectorIdNS_9allocatorIdEEE8allocateEm
Ltmp233:
	jmp	LBB53_4
LBB53_4:
	leaq	-768(%rbp), %rax
	movq	%rax, -640(%rbp)
	movq	-768(%rbp), %rsi
	movq	%rax, -648(%rbp)
	movq	-768(%rbp), %rax
	movq	-760(%rbp), %rcx
	leaq	(%rax,%rcx,8), %rdx
Ltmp234:
	movq	-992(%rbp), %rdi        ## 8-byte Reload
	callq	__ZNSt3__16vectorIdNS_9allocatorIdEEE18__construct_at_endIPKdEENS_9enable_ifIXsr21__is_forward_iteratorIT_EE5valueEvE4typeES8_S8_
Ltmp235:
	jmp	LBB53_5
LBB53_5:
	jmp	LBB53_7
LBB53_6:
Ltmp236:
	movl	%edx, %ecx
	movq	%rax, -784(%rbp)
	movl	%ecx, -788(%rbp)
	movq	-992(%rbp), %rdi        ## 8-byte Reload
	callq	__ZNSt3__113__vector_baseIdNS_9allocatorIdEEED2Ev
	movq	-784(%rbp), %rax
	movl	-788(%rbp), %ecx
	movq	%rax, -1000(%rbp)       ## 8-byte Spill
	movl	%ecx, -1004(%rbp)       ## 4-byte Spill
	jmp	LBB53_31
LBB53_7:                                ## %_ZNSt3__16vectorIdNS_9allocatorIdEEEC1ESt16initializer_listIdE.exit
	jmp	LBB53_8
LBB53_8:
	movq	__ZNSt3__16vectorIdNS_9allocatorIdEEED1Ev@GOTPCREL(%rip), %rax
	leaq	__ZZN3fid10FidFactory5BlochERKNSt3__16vectorIdNS1_9allocatorIdEEEERS5_dE1b(%rip), %rcx
	movq	___dso_handle@GOTPCREL(%rip), %rdx
	movq	%rax, %rdi
	movq	%rcx, %rsi
	callq	___cxa_atexit
	leaq	__ZGVZN3fid10FidFactory5BlochERKNSt3__16vectorIdNS1_9allocatorIdEEEERS5_dE1b(%rip), %rdi
	movl	%eax, -1008(%rbp)       ## 4-byte Spill
	callq	___cxa_guard_release
LBB53_9:
	cmpb	$0, __ZGVZN3fid10FidFactory5BlochERKNSt3__16vectorIdNS1_9allocatorIdEEEERS5_dE2s1(%rip)
	jne	LBB53_18
## BB#10:
	leaq	__ZGVZN3fid10FidFactory5BlochERKNSt3__16vectorIdNS1_9allocatorIdEEEERS5_dE2s1(%rip), %rdi
	callq	___cxa_guard_acquire
	cmpl	$0, %eax
	je	LBB53_18
## BB#11:
	leaq	-584(%rbp), %rax
	leaq	-512(%rbp), %rcx
	leaq	-536(%rbp), %rdx
	leaq	__ZZN3fid10FidFactory5BlochERKNSt3__16vectorIdNS1_9allocatorIdEEEERS5_dE2s1(%rip), %rsi
	leaq	-64(%rbp), %rdi
	xorl	%r8d, %r8d
	movl	$24, %r9d
	movl	%r9d, %r10d
	movq	%rdi, %r11
	movq	%rdi, -1016(%rbp)       ## 8-byte Spill
	movq	%r11, %rdi
	movq	%rsi, -1024(%rbp)       ## 8-byte Spill
	movl	%r8d, %esi
	movq	%rdx, -1032(%rbp)       ## 8-byte Spill
	movq	%r10, %rdx
	movq	%rax, -1040(%rbp)       ## 8-byte Spill
	movq	%rcx, -1048(%rbp)       ## 8-byte Spill
	callq	_memset
	movq	-1016(%rbp), %rax       ## 8-byte Reload
	movq	%rax, -896(%rbp)
	movq	$3, -888(%rbp)
	movq	-896(%rbp), %rcx
	movq	-888(%rbp), %rdx
	movq	%rcx, -624(%rbp)
	movq	%rdx, -616(%rbp)
	movq	-1024(%rbp), %rcx       ## 8-byte Reload
	movq	%rcx, -632(%rbp)
	movq	-632(%rbp), %rdx
	movq	-624(%rbp), %rdi
	movq	-616(%rbp), %r10
	movq	%rdi, -584(%rbp)
	movq	%r10, -576(%rbp)
	movq	%rdx, -592(%rbp)
	movq	-592(%rbp), %rdx
	movq	%rdx, %rdi
	movq	%rdi, -568(%rbp)
	movq	-568(%rbp), %rdi
	movq	%rdi, %r10
	movq	%r10, -560(%rbp)
	movq	$0, (%rdi)
	movq	$0, 8(%rdi)
	addq	$16, %rdi
	movq	%rdi, -544(%rbp)
	movq	$0, -552(%rbp)
	movq	-544(%rbp), %rdi
	movq	-552(%rbp), %r10
	movq	%rdi, -528(%rbp)
	movq	%r10, -536(%rbp)
	movq	-528(%rbp), %rdi
	movq	-1032(%rbp), %r10       ## 8-byte Reload
	movq	%r10, -520(%rbp)
	movq	-520(%rbp), %r11
	movq	(%r11), %r11
	movq	%rdi, -504(%rbp)
	movq	%r11, -512(%rbp)
	movq	-504(%rbp), %rdi
	movq	%rdi, %r11
	movq	%r11, -496(%rbp)
	movq	-1048(%rbp), %r11       ## 8-byte Reload
	movq	%r11, -488(%rbp)
	movq	-488(%rbp), %rbx
	movq	(%rbx), %rbx
	movq	%rbx, (%rdi)
	movq	-1040(%rbp), %rdi       ## 8-byte Reload
	movq	%rdi, -480(%rbp)
	movq	-480(%rbp), %rbx
	cmpq	$0, 8(%rbx)
	movq	%rdx, -1056(%rbp)       ## 8-byte Spill
	jbe	LBB53_16
## BB#12:
	leaq	-584(%rbp), %rax
	movq	%rax, -472(%rbp)
	movq	-576(%rbp), %rsi
Ltmp237:
	movq	-1056(%rbp), %rdi       ## 8-byte Reload
	callq	__ZNSt3__16vectorIdNS_9allocatorIdEEE8allocateEm
Ltmp238:
	jmp	LBB53_13
LBB53_13:
	leaq	-584(%rbp), %rax
	movq	%rax, -456(%rbp)
	movq	-584(%rbp), %rsi
	movq	%rax, -464(%rbp)
	movq	-584(%rbp), %rax
	movq	-576(%rbp), %rcx
	leaq	(%rax,%rcx,8), %rdx
Ltmp239:
	movq	-1056(%rbp), %rdi       ## 8-byte Reload
	callq	__ZNSt3__16vectorIdNS_9allocatorIdEEE18__construct_at_endIPKdEENS_9enable_ifIXsr21__is_forward_iteratorIT_EE5valueEvE4typeES8_S8_
Ltmp240:
	jmp	LBB53_14
LBB53_14:
	jmp	LBB53_16
LBB53_15:
Ltmp241:
	movl	%edx, %ecx
	movq	%rax, -600(%rbp)
	movl	%ecx, -604(%rbp)
	movq	-1056(%rbp), %rdi       ## 8-byte Reload
	callq	__ZNSt3__113__vector_baseIdNS_9allocatorIdEEED2Ev
	movq	-600(%rbp), %rax
	movl	-604(%rbp), %ecx
	movq	%rax, -1064(%rbp)       ## 8-byte Spill
	movl	%ecx, -1068(%rbp)       ## 4-byte Spill
	jmp	LBB53_32
LBB53_16:                               ## %_ZNSt3__16vectorIdNS_9allocatorIdEEEC1ESt16initializer_listIdE.exit5
	jmp	LBB53_17
LBB53_17:
	movq	__ZNSt3__16vectorIdNS_9allocatorIdEEED1Ev@GOTPCREL(%rip), %rax
	leaq	__ZZN3fid10FidFactory5BlochERKNSt3__16vectorIdNS1_9allocatorIdEEEERS5_dE2s1(%rip), %rcx
	movq	___dso_handle@GOTPCREL(%rip), %rdx
	movq	%rax, %rdi
	movq	%rcx, %rsi
	callq	___cxa_atexit
	leaq	__ZGVZN3fid10FidFactory5BlochERKNSt3__16vectorIdNS1_9allocatorIdEEEERS5_dE2s1(%rip), %rdi
	movl	%eax, -1072(%rbp)       ## 4-byte Spill
	callq	___cxa_guard_release
LBB53_18:
	cmpb	$0, __ZGVZN3fid10FidFactory5BlochERKNSt3__16vectorIdNS1_9allocatorIdEEEERS5_dE2s2(%rip)
	jne	LBB53_27
## BB#19:
	leaq	__ZGVZN3fid10FidFactory5BlochERKNSt3__16vectorIdNS1_9allocatorIdEEEERS5_dE2s2(%rip), %rdi
	callq	___cxa_guard_acquire
	cmpl	$0, %eax
	je	LBB53_27
## BB#20:
	leaq	-400(%rbp), %rax
	leaq	-328(%rbp), %rcx
	leaq	-352(%rbp), %rdx
	leaq	__ZZN3fid10FidFactory5BlochERKNSt3__16vectorIdNS1_9allocatorIdEEEERS5_dE2s2(%rip), %rsi
	leaq	-88(%rbp), %rdi
	xorl	%r8d, %r8d
	movl	$24, %r9d
	movl	%r9d, %r10d
	movq	%rdi, %r11
	movq	%rdi, -1080(%rbp)       ## 8-byte Spill
	movq	%r11, %rdi
	movq	%rsi, -1088(%rbp)       ## 8-byte Spill
	movl	%r8d, %esi
	movq	%rdx, -1096(%rbp)       ## 8-byte Spill
	movq	%r10, %rdx
	movq	%rax, -1104(%rbp)       ## 8-byte Spill
	movq	%rcx, -1112(%rbp)       ## 8-byte Spill
	callq	_memset
	movq	-1080(%rbp), %rax       ## 8-byte Reload
	movq	%rax, -912(%rbp)
	movq	$3, -904(%rbp)
	movq	-912(%rbp), %rcx
	movq	-904(%rbp), %rdx
	movq	%rcx, -440(%rbp)
	movq	%rdx, -432(%rbp)
	movq	-1088(%rbp), %rcx       ## 8-byte Reload
	movq	%rcx, -448(%rbp)
	movq	-448(%rbp), %rdx
	movq	-440(%rbp), %rdi
	movq	-432(%rbp), %r10
	movq	%rdi, -400(%rbp)
	movq	%r10, -392(%rbp)
	movq	%rdx, -408(%rbp)
	movq	-408(%rbp), %rdx
	movq	%rdx, %rdi
	movq	%rdi, -384(%rbp)
	movq	-384(%rbp), %rdi
	movq	%rdi, %r10
	movq	%r10, -376(%rbp)
	movq	$0, (%rdi)
	movq	$0, 8(%rdi)
	addq	$16, %rdi
	movq	%rdi, -360(%rbp)
	movq	$0, -368(%rbp)
	movq	-360(%rbp), %rdi
	movq	-368(%rbp), %r10
	movq	%rdi, -344(%rbp)
	movq	%r10, -352(%rbp)
	movq	-344(%rbp), %rdi
	movq	-1096(%rbp), %r10       ## 8-byte Reload
	movq	%r10, -336(%rbp)
	movq	-336(%rbp), %r11
	movq	(%r11), %r11
	movq	%rdi, -320(%rbp)
	movq	%r11, -328(%rbp)
	movq	-320(%rbp), %rdi
	movq	%rdi, %r11
	movq	%r11, -312(%rbp)
	movq	-1112(%rbp), %r11       ## 8-byte Reload
	movq	%r11, -304(%rbp)
	movq	-304(%rbp), %rbx
	movq	(%rbx), %rbx
	movq	%rbx, (%rdi)
	movq	-1104(%rbp), %rdi       ## 8-byte Reload
	movq	%rdi, -296(%rbp)
	movq	-296(%rbp), %rbx
	cmpq	$0, 8(%rbx)
	movq	%rdx, -1120(%rbp)       ## 8-byte Spill
	jbe	LBB53_25
## BB#21:
	leaq	-400(%rbp), %rax
	movq	%rax, -288(%rbp)
	movq	-392(%rbp), %rsi
Ltmp242:
	movq	-1120(%rbp), %rdi       ## 8-byte Reload
	callq	__ZNSt3__16vectorIdNS_9allocatorIdEEE8allocateEm
Ltmp243:
	jmp	LBB53_22
LBB53_22:
	leaq	-400(%rbp), %rax
	movq	%rax, -272(%rbp)
	movq	-400(%rbp), %rsi
	movq	%rax, -280(%rbp)
	movq	-400(%rbp), %rax
	movq	-392(%rbp), %rcx
	leaq	(%rax,%rcx,8), %rdx
Ltmp244:
	movq	-1120(%rbp), %rdi       ## 8-byte Reload
	callq	__ZNSt3__16vectorIdNS_9allocatorIdEEE18__construct_at_endIPKdEENS_9enable_ifIXsr21__is_forward_iteratorIT_EE5valueEvE4typeES8_S8_
Ltmp245:
	jmp	LBB53_23
LBB53_23:
	jmp	LBB53_25
LBB53_24:
Ltmp246:
	movl	%edx, %ecx
	movq	%rax, -416(%rbp)
	movl	%ecx, -420(%rbp)
	movq	-1120(%rbp), %rdi       ## 8-byte Reload
	callq	__ZNSt3__113__vector_baseIdNS_9allocatorIdEEED2Ev
	movq	-416(%rbp), %rax
	movl	-420(%rbp), %ecx
	movq	%rax, -1128(%rbp)       ## 8-byte Spill
	movl	%ecx, -1132(%rbp)       ## 4-byte Spill
	jmp	LBB53_33
LBB53_25:                               ## %_ZNSt3__16vectorIdNS_9allocatorIdEEEC1ESt16initializer_listIdE.exit10
	jmp	LBB53_26
LBB53_26:
	movq	__ZNSt3__16vectorIdNS_9allocatorIdEEED1Ev@GOTPCREL(%rip), %rax
	leaq	__ZZN3fid10FidFactory5BlochERKNSt3__16vectorIdNS1_9allocatorIdEEEERS5_dE2s2(%rip), %rcx
	movq	___dso_handle@GOTPCREL(%rip), %rdx
	movq	%rax, %rdi
	movq	%rcx, %rsi
	callq	___cxa_atexit
	leaq	__ZGVZN3fid10FidFactory5BlochERKNSt3__16vectorIdNS1_9allocatorIdEEEERS5_dE2s2(%rip), %rdi
	movl	%eax, -1136(%rbp)       ## 4-byte Spill
	callq	___cxa_guard_release
LBB53_27:
	leaq	-936(%rbp), %rdi
	leaq	-848(%rbp), %rdx
	movq	-944(%rbp), %rsi        ## 8-byte Reload
	callq	__ZN3fid10FidFactory6BfieldERKd
	leaq	-936(%rbp), %rdx
	leaq	__ZZN3fid10FidFactory5BlochERKNSt3__16vectorIdNS1_9allocatorIdEEEERS5_dE1b(%rip), %rsi
	movq	%rsi, -248(%rbp)
	movq	%rdx, -256(%rbp)
	movq	-248(%rbp), %rdi
	movq	-256(%rbp), %rsi
	callq	__ZNSt3__16vectorIdNS_9allocatorIdEEE13__move_assignERS3_NS_17integral_constantIbLb1EEE
	leaq	-936(%rbp), %rdi
	callq	__ZNSt3__16vectorIdNS_9allocatorIdEEED1Ev
	leaq	__ZZN3fid10FidFactory5BlochERKNSt3__16vectorIdNS1_9allocatorIdEEEERS5_dE1b(%rip), %rdi
	leaq	__ZZN3fid10FidFactory5BlochERKNSt3__16vectorIdNS1_9allocatorIdEEEERS5_dE2s1(%rip), %rdx
	leaq	__ZZN3fid10FidFactory5BlochERKNSt3__16vectorIdNS1_9allocatorIdEEEERS5_dE2s2(%rip), %rsi
	movsd	LCPI53_0(%rip), %xmm0
	movq	__ZN3fid3sim7gamma_1E@GOTPCREL(%rip), %rax
	movq	__ZN3fid3sim7gamma_2E@GOTPCREL(%rip), %rcx
	movsd	(%rcx), %xmm1
	movq	-832(%rbp), %r8
	movq	%r8, -232(%rbp)
	movq	$0, -240(%rbp)
	movq	-232(%rbp), %r8
	movq	-240(%rbp), %r9
	movq	(%r8), %r8
	mulsd	(%r8,%r9,8), %xmm1
	movq	%rsi, -216(%rbp)
	movq	$0, -224(%rbp)
	movq	-216(%rbp), %r8
	movq	-224(%rbp), %r9
	movq	(%r8), %r8
	movsd	%xmm1, (%r8,%r9,8)
	movsd	(%rcx), %xmm1
	movq	-832(%rbp), %rcx
	movq	%rcx, -200(%rbp)
	movq	$1, -208(%rbp)
	movq	-200(%rbp), %rcx
	movq	-208(%rbp), %r8
	movq	(%rcx), %rcx
	mulsd	(%rcx,%r8,8), %xmm1
	movq	%rsi, -184(%rbp)
	movq	$1, -192(%rbp)
	movq	-184(%rbp), %rcx
	movq	-192(%rbp), %r8
	movq	(%rcx), %rcx
	movsd	%xmm1, (%rcx,%r8,8)
	movsd	(%rax), %xmm1
	movq	-832(%rbp), %rax
	movq	%rax, -168(%rbp)
	movq	$2, -176(%rbp)
	movq	-168(%rbp), %rax
	movq	-176(%rbp), %rcx
	movq	(%rax), %rax
	movsd	(%rax,%rcx,8), %xmm2
	subsd	%xmm0, %xmm2
	mulsd	%xmm2, %xmm1
	movq	%rsi, -152(%rbp)
	movq	$2, -160(%rbp)
	movq	-152(%rbp), %rax
	movq	-160(%rbp), %rcx
	movq	(%rax), %rax
	movsd	%xmm1, (%rax,%rcx,8)
	movq	-832(%rbp), %rsi
	callq	__ZN3fid5crossIdEEvRKNSt3__16vectorIT_NS1_9allocatorIS3_EEEES8_RS6_
	leaq	__ZZN3fid10FidFactory5BlochERKNSt3__16vectorIdNS1_9allocatorIdEEEERS5_dE2s1(%rip), %rdi
	leaq	__ZZN3fid10FidFactory5BlochERKNSt3__16vectorIdNS1_9allocatorIdEEEERS5_dE2s2(%rip), %rsi
	movq	-840(%rbp), %rax
	movq	%rax, -1144(%rbp)       ## 8-byte Spill
	callq	__ZN3fidmiIdEERNSt3__16vectorIT_NS1_9allocatorIS3_EEEES7_S7_
	movq	-1144(%rbp), %rcx       ## 8-byte Reload
	movq	%rcx, -136(%rbp)
	movq	%rax, -144(%rbp)
	movq	-136(%rbp), %rax
	cmpq	-144(%rbp), %rax
	movq	%rax, -1152(%rbp)       ## 8-byte Spill
	je	LBB53_29
## BB#28:
	movq	-1152(%rbp), %rax       ## 8-byte Reload
	movq	-144(%rbp), %rcx
	movq	%rax, -112(%rbp)
	movq	%rcx, -120(%rbp)
	movq	-112(%rbp), %rax
	movq	-120(%rbp), %rcx
	movq	%rax, -96(%rbp)
	movq	%rcx, -104(%rbp)
	movq	-144(%rbp), %rax
	movq	(%rax), %rsi
	movq	-144(%rbp), %rax
	movq	8(%rax), %rdx
	movq	-1152(%rbp), %rdi       ## 8-byte Reload
	callq	__ZNSt3__16vectorIdNS_9allocatorIdEEE6assignIPdEENS_9enable_ifIXaasr21__is_forward_iteratorIT_EE5valuesr16is_constructibleIdNS_15iterator_traitsIS7_E9referenceEEE5valueEvE4typeES7_S7_
LBB53_29:                               ## %_ZNSt3__16vectorIdNS_9allocatorIdEEEaSERKS3_.exit
	movq	___stack_chk_guard@GOTPCREL(%rip), %rax
	movq	(%rax), %rax
	cmpq	-16(%rbp), %rax
	jne	LBB53_35
## BB#30:                               ## %SP_return
	addq	$1144, %rsp             ## imm = 0x478
	popq	%rbx
	popq	%rbp
	retq
LBB53_31:                               ## %.body
	leaq	__ZGVZN3fid10FidFactory5BlochERKNSt3__16vectorIdNS1_9allocatorIdEEEERS5_dE1b(%rip), %rdi
	movq	-1000(%rbp), %rax       ## 8-byte Reload
	movq	%rax, -872(%rbp)
	movl	-1004(%rbp), %ecx       ## 4-byte Reload
	movl	%ecx, -876(%rbp)
	callq	___cxa_guard_abort
	jmp	LBB53_34
LBB53_32:                               ## %.body3
	leaq	__ZGVZN3fid10FidFactory5BlochERKNSt3__16vectorIdNS1_9allocatorIdEEEERS5_dE2s1(%rip), %rdi
	movq	-1064(%rbp), %rax       ## 8-byte Reload
	movq	%rax, -872(%rbp)
	movl	-1068(%rbp), %ecx       ## 4-byte Reload
	movl	%ecx, -876(%rbp)
	callq	___cxa_guard_abort
	jmp	LBB53_34
LBB53_33:                               ## %.body8
	leaq	__ZGVZN3fid10FidFactory5BlochERKNSt3__16vectorIdNS1_9allocatorIdEEEERS5_dE2s2(%rip), %rdi
	movq	-1128(%rbp), %rax       ## 8-byte Reload
	movq	%rax, -872(%rbp)
	movl	-1132(%rbp), %ecx       ## 4-byte Reload
	movl	%ecx, -876(%rbp)
	callq	___cxa_guard_abort
LBB53_34:
	movq	-872(%rbp), %rdi
	callq	__Unwind_Resume
LBB53_35:                               ## %CallStackCheckFailBlk
	callq	___stack_chk_fail
	.cfi_endproc
Leh_func_end53:
	.section	__TEXT,__gcc_except_tab
	.align	2
GCC_except_table53:
Lexception53:
	.byte	255                     ## @LPStart Encoding = omit
	.byte	155                     ## @TType Encoding = indirect pcrel sdata4
	.byte	93                      ## @TType base offset
	.byte	3                       ## Call site Encoding = udata4
	.byte	91                      ## Call site table length
Lset54 = Leh_func_begin53-Leh_func_begin53 ## >> Call Site 1 <<
	.long	Lset54
Lset55 = Ltmp232-Leh_func_begin53       ##   Call between Leh_func_begin53 and Ltmp232
	.long	Lset55
	.long	0                       ##     has no landing pad
	.byte	0                       ##   On action: cleanup
Lset56 = Ltmp232-Leh_func_begin53       ## >> Call Site 2 <<
	.long	Lset56
Lset57 = Ltmp235-Ltmp232                ##   Call between Ltmp232 and Ltmp235
	.long	Lset57
Lset58 = Ltmp236-Leh_func_begin53       ##     jumps to Ltmp236
	.long	Lset58
	.byte	0                       ##   On action: cleanup
Lset59 = Ltmp235-Leh_func_begin53       ## >> Call Site 3 <<
	.long	Lset59
Lset60 = Ltmp237-Ltmp235                ##   Call between Ltmp235 and Ltmp237
	.long	Lset60
	.long	0                       ##     has no landing pad
	.byte	0                       ##   On action: cleanup
Lset61 = Ltmp237-Leh_func_begin53       ## >> Call Site 4 <<
	.long	Lset61
Lset62 = Ltmp240-Ltmp237                ##   Call between Ltmp237 and Ltmp240
	.long	Lset62
Lset63 = Ltmp241-Leh_func_begin53       ##     jumps to Ltmp241
	.long	Lset63
	.byte	0                       ##   On action: cleanup
Lset64 = Ltmp240-Leh_func_begin53       ## >> Call Site 5 <<
	.long	Lset64
Lset65 = Ltmp242-Ltmp240                ##   Call between Ltmp240 and Ltmp242
	.long	Lset65
	.long	0                       ##     has no landing pad
	.byte	0                       ##   On action: cleanup
Lset66 = Ltmp242-Leh_func_begin53       ## >> Call Site 6 <<
	.long	Lset66
Lset67 = Ltmp245-Ltmp242                ##   Call between Ltmp242 and Ltmp245
	.long	Lset67
Lset68 = Ltmp246-Leh_func_begin53       ##     jumps to Ltmp246
	.long	Lset68
	.byte	0                       ##   On action: cleanup
Lset69 = Ltmp245-Leh_func_begin53       ## >> Call Site 7 <<
	.long	Lset69
Lset70 = Leh_func_end53-Ltmp245         ##   Call between Ltmp245 and Leh_func_end53
	.long	Lset70
	.long	0                       ##     has no landing pad
	.byte	0                       ##   On action: cleanup
	.align	2

	.section	__TEXT,__literal8,8byte_literals
	.align	3
LCPI54_0:
	.quad	4618760256179416344     ## double 6.2831853071795862
	.section	__TEXT,__text,regular,pure_instructions
	.globl	__ZN3fid10FidFactory7PrinterERKNSt3__16vectorIdNS1_9allocatorIdEEEEd
	.align	4, 0x90
__ZN3fid10FidFactory7PrinterERKNSt3__16vectorIdNS1_9allocatorIdEEEEd: ## @_ZN3fid10FidFactory7PrinterERKNSt3__16vectorIdNS1_9allocatorIdEEEEd
	.cfi_startproc
## BB#0:
	pushq	%rbp
Ltmp251:
	.cfi_def_cfa_offset 16
Ltmp252:
	.cfi_offset %rbp, -16
	movq	%rsp, %rbp
Ltmp253:
	.cfi_def_cfa_register %rbp
	subq	$448, %rsp              ## imm = 0x1C0
	movq	%rdi, -312(%rbp)
	movq	%rsi, -320(%rbp)
	movsd	%xmm0, -328(%rbp)
	movq	-312(%rbp), %rsi
	movq	%rsi, %rdi
	addq	$136, %rdi
	movq	%rdi, -304(%rbp)
	movq	-304(%rbp), %rdi
	movq	8(%rdi), %rax
	movq	(%rdi), %rdi
	subq	%rdi, %rax
	sarq	$3, %rax
	cmpq	$0, %rax
	movq	%rsi, -400(%rbp)        ## 8-byte Spill
	jne	LBB54_11
## BB#1:
	movq	-400(%rbp), %rax        ## 8-byte Reload
	addq	$136, %rax
	movq	-400(%rbp), %rcx        ## 8-byte Reload
	movslq	28(%rcx), %rsi
	movq	%rax, %rdi
	callq	__ZNSt3__16vectorIdNS_9allocatorIdEEE7reserveEm
	movsd	-328(%rbp), %xmm0
	movsd	%xmm0, -336(%rbp)
	movl	$0, -340(%rbp)
LBB54_2:                                ## =>This Inner Loop Header: Depth=1
	movl	-340(%rbp), %eax
	movq	-400(%rbp), %rcx        ## 8-byte Reload
	cmpl	28(%rcx), %eax
	jge	LBB54_10
## BB#3:                                ##   in Loop: Header=BB54_2 Depth=1
	leaq	-352(%rbp), %rax
	movq	__ZN3fid3sim11mixdown_phiE@GOTPCREL(%rip), %rcx
	movsd	LCPI54_0(%rip), %xmm0
	movq	__ZN3fid3sim8freq_refE@GOTPCREL(%rip), %rdx
	movq	-400(%rbp), %rsi        ## 8-byte Reload
	addq	$136, %rsi
	mulsd	(%rdx), %xmm0
	mulsd	-336(%rbp), %xmm0
	addsd	(%rcx), %xmm0
	movq	%rax, -408(%rbp)        ## 8-byte Spill
	movq	%rsi, -416(%rbp)        ## 8-byte Spill
	callq	_cos
	movsd	%xmm0, -352(%rbp)
	movq	-416(%rbp), %rax        ## 8-byte Reload
	movq	%rax, -288(%rbp)
	movq	-408(%rbp), %rax        ## 8-byte Reload
	movq	%rax, -296(%rbp)
	movq	-288(%rbp), %rcx
	movq	8(%rcx), %rdx
	movq	%rcx, %rsi
	movq	%rsi, -280(%rbp)
	movq	-280(%rbp), %rsi
	addq	$16, %rsi
	movq	%rsi, -272(%rbp)
	movq	-272(%rbp), %rsi
	movq	%rsi, -264(%rbp)
	movq	-264(%rbp), %rsi
	cmpq	(%rsi), %rdx
	movq	%rcx, -424(%rbp)        ## 8-byte Spill
	jae	LBB54_7
## BB#4:                                ##   in Loop: Header=BB54_2 Depth=1
	movl	$1, %eax
	movl	%eax, %esi
	movq	-424(%rbp), %rdi        ## 8-byte Reload
	callq	__ZNSt3__16vectorIdNS_9allocatorIdEEE19__annotate_increaseEm
	movq	-424(%rbp), %rsi        ## 8-byte Reload
	movq	%rsi, -256(%rbp)
	movq	-256(%rbp), %rsi
	addq	$16, %rsi
	movq	%rsi, -248(%rbp)
	movq	-248(%rbp), %rsi
	movq	%rsi, -240(%rbp)
	movq	-240(%rbp), %rsi
	movq	-424(%rbp), %rdi        ## 8-byte Reload
	movq	8(%rdi), %rcx
	movq	%rcx, -96(%rbp)
	movq	-96(%rbp), %rcx
	movq	-296(%rbp), %rdx
	movq	%rdx, -104(%rbp)
	movq	-104(%rbp), %rdx
	movq	%rsi, -192(%rbp)
	movq	%rcx, -200(%rbp)
	movq	%rdx, -208(%rbp)
	movq	-192(%rbp), %rcx
	movq	-200(%rbp), %rdx
	movq	-208(%rbp), %rsi
	movq	%rsi, -184(%rbp)
	movq	-184(%rbp), %rsi
	movq	%rcx, -160(%rbp)
	movq	%rdx, -168(%rbp)
	movq	%rsi, -176(%rbp)
	movq	-160(%rbp), %rcx
	movq	-168(%rbp), %rdx
	movq	-176(%rbp), %rsi
	movq	%rsi, -144(%rbp)
	movq	-144(%rbp), %rsi
	movq	%rcx, -120(%rbp)
	movq	%rdx, -128(%rbp)
	movq	%rsi, -136(%rbp)
	movq	-128(%rbp), %rcx
	cmpq	$0, %rcx
	movq	%rcx, -432(%rbp)        ## 8-byte Spill
	je	LBB54_6
## BB#5:                                ##   in Loop: Header=BB54_2 Depth=1
	movq	-432(%rbp), %rax        ## 8-byte Reload
	movq	-136(%rbp), %rcx
	movq	%rcx, -112(%rbp)
	movq	-112(%rbp), %rcx
	movsd	(%rcx), %xmm0
	movq	-432(%rbp), %rcx        ## 8-byte Reload
	movsd	%xmm0, (%rcx)
	movq	%rax, -440(%rbp)        ## 8-byte Spill
LBB54_6:                                ## %_ZNSt3__116allocator_traitsINS_9allocatorIdEEE9constructIdJdEEEvRS2_PT_DpOT0_.exit.i
                                        ##   in Loop: Header=BB54_2 Depth=1
	movq	-424(%rbp), %rax        ## 8-byte Reload
	movq	8(%rax), %rcx
	addq	$8, %rcx
	movq	%rcx, 8(%rax)
	jmp	LBB54_8
LBB54_7:                                ##   in Loop: Header=BB54_2 Depth=1
	movq	-296(%rbp), %rax
	movq	%rax, -232(%rbp)
	movq	-232(%rbp), %rsi
	movq	-424(%rbp), %rdi        ## 8-byte Reload
	callq	__ZNSt3__16vectorIdNS_9allocatorIdEEE21__push_back_slow_pathIdEEvOT_
LBB54_8:                                ## %_ZNSt3__16vectorIdNS_9allocatorIdEEE9push_backEOd.exit
                                        ##   in Loop: Header=BB54_2 Depth=1
	movq	-400(%rbp), %rax        ## 8-byte Reload
	movsd	16(%rax), %xmm0
	movsd	-336(%rbp), %xmm1
	addsd	%xmm0, %xmm1
	movsd	%xmm1, -336(%rbp)
## BB#9:                                ##   in Loop: Header=BB54_2 Depth=1
	movl	-340(%rbp), %eax
	addl	$1, %eax
	movl	%eax, -340(%rbp)
	jmp	LBB54_2
LBB54_10:
	leaq	-360(%rbp), %rdx
	xorps	%xmm0, %xmm0
	movq	-400(%rbp), %rax        ## 8-byte Reload
	addq	$64, %rax
	movq	-400(%rbp), %rcx        ## 8-byte Reload
	movslq	28(%rcx), %rsi
	movsd	%xmm0, -360(%rbp)
	movq	%rax, %rdi
	callq	__ZNSt3__16vectorIdNS_9allocatorIdEEE6assignEmRKd
	leaq	-368(%rbp), %rdx
	xorps	%xmm0, %xmm0
	movq	-400(%rbp), %rax        ## 8-byte Reload
	addq	$88, %rax
	movq	-400(%rbp), %rcx        ## 8-byte Reload
	movslq	28(%rcx), %rsi
	movsd	%xmm0, -368(%rbp)
	movq	%rax, %rdi
	callq	__ZNSt3__16vectorIdNS_9allocatorIdEEE6assignEmRKd
LBB54_11:
	movsd	-328(%rbp), %xmm0
	movq	-400(%rbp), %rax        ## 8-byte Reload
	movsd	(%rax), %xmm1
	addsd	16(%rax), %xmm1
	ucomisd	%xmm0, %xmm1
	jbe	LBB54_13
## BB#12:
	movq	-400(%rbp), %rax        ## 8-byte Reload
	movl	$0, 32(%rax)
LBB54_13:
	movq	__ZN3fid3sim9amplitudeE@GOTPCREL(%rip), %rax
	movsd	(%rax), %xmm0
	movq	-320(%rbp), %rax
	movq	%rax, -80(%rbp)
	movq	$1, -88(%rbp)
	movq	-80(%rbp), %rax
	movq	-88(%rbp), %rcx
	movq	(%rax), %rax
	mulsd	(%rax,%rcx,8), %xmm0
	movq	-400(%rbp), %rax        ## 8-byte Reload
	addq	$136, %rax
	movq	-400(%rbp), %rcx        ## 8-byte Reload
	movslq	32(%rcx), %rdx
	movq	%rax, -64(%rbp)
	movq	%rdx, -72(%rbp)
	movq	-64(%rbp), %rax
	movq	-72(%rbp), %rdx
	movq	(%rax), %rax
	mulsd	(%rax,%rdx,8), %xmm0
	addq	$64, %rcx
	movq	-400(%rbp), %rax        ## 8-byte Reload
	movslq	32(%rax), %rdx
	movq	%rcx, -24(%rbp)
	movq	%rdx, -32(%rbp)
	movq	-24(%rbp), %rcx
	movq	-32(%rbp), %rdx
	movq	(%rcx), %rcx
	movsd	%xmm0, (%rcx,%rdx,8)
	movsd	-328(%rbp), %xmm0
	addq	$88, %rax
	movq	-400(%rbp), %rcx        ## 8-byte Reload
	movl	32(%rcx), %esi
	movl	%esi, %edi
	addl	$1, %edi
	movl	%edi, 32(%rcx)
	movslq	%esi, %rdx
	movq	%rax, -8(%rbp)
	movq	%rdx, -16(%rbp)
	movq	-8(%rbp), %rax
	movq	-16(%rbp), %rdx
	movq	(%rax), %rax
	movsd	%xmm0, (%rax,%rdx,8)
	movsd	-328(%rbp), %xmm0
	movsd	8(%rcx), %xmm1
	subsd	16(%rcx), %xmm1
	ucomisd	%xmm1, %xmm0
	jbe	LBB54_15
## BB#14:
	leaq	-392(%rbp), %rdi
	movq	-400(%rbp), %rax        ## 8-byte Reload
	addq	$64, %rax
	movq	-400(%rbp), %rcx        ## 8-byte Reload
	addq	$64, %rcx
	movq	-400(%rbp), %rsi        ## 8-byte Reload
	movq	%rcx, %rdx
	movq	%rax, -448(%rbp)        ## 8-byte Spill
	callq	__ZN3fid10FidFactory13LowPassFilterERNSt3__16vectorIdNS1_9allocatorIdEEEE
	leaq	-392(%rbp), %rax
	movq	-448(%rbp), %rcx        ## 8-byte Reload
	movq	%rcx, -40(%rbp)
	movq	%rax, -48(%rbp)
	movq	-40(%rbp), %rdi
	movq	-48(%rbp), %rsi
	callq	__ZNSt3__16vectorIdNS_9allocatorIdEEE13__move_assignERS3_NS_17integral_constantIbLb1EEE
	leaq	-392(%rbp), %rdi
	callq	__ZNSt3__16vectorIdNS_9allocatorIdEEED1Ev
	movq	-400(%rbp), %rax        ## 8-byte Reload
	movl	$0, 32(%rax)
LBB54_15:
	addq	$448, %rsp              ## imm = 0x1C0
	popq	%rbp
	retq
	.cfi_endproc

	.section	__TEXT,__textcoal_nt,coalesced,pure_instructions
	.globl	__ZN5boost7numeric6odeint12runge_kutta4INSt3__16vectorIdNS3_9allocatorIdEEEEdS7_dNS1_13range_algebraENS1_18default_operationsENS1_17initially_resizerEED1Ev
	.weak_def_can_be_hidden	__ZN5boost7numeric6odeint12runge_kutta4INSt3__16vectorIdNS3_9allocatorIdEEEEdS7_dNS1_13range_algebraENS1_18default_operationsENS1_17initially_resizerEED1Ev
	.align	4, 0x90
__ZN5boost7numeric6odeint12runge_kutta4INSt3__16vectorIdNS3_9allocatorIdEEEEdS7_dNS1_13range_algebraENS1_18default_operationsENS1_17initially_resizerEED1Ev: ## @_ZN5boost7numeric6odeint12runge_kutta4INSt3__16vectorIdNS3_9allocatorIdEEEEdS7_dNS1_13range_algebraENS1_18default_operationsENS1_17initially_resizerEED1Ev
	.cfi_startproc
## BB#0:
	pushq	%rbp
Ltmp254:
	.cfi_def_cfa_offset 16
Ltmp255:
	.cfi_offset %rbp, -16
	movq	%rsp, %rbp
Ltmp256:
	.cfi_def_cfa_register %rbp
	subq	$16, %rsp
	movq	%rdi, -8(%rbp)
	movq	-8(%rbp), %rdi
	callq	__ZN5boost7numeric6odeint12runge_kutta4INSt3__16vectorIdNS3_9allocatorIdEEEEdS7_dNS1_13range_algebraENS1_18default_operationsENS1_17initially_resizerEED2Ev
	addq	$16, %rsp
	popq	%rbp
	retq
	.cfi_endproc

	.section	__TEXT,__literal16,16byte_literals
	.align	4
LCPI56_0:
	.long	1127219200              ## 0x43300000
	.long	1160773632              ## 0x45300000
	.long	0                       ## 0x0
	.long	0                       ## 0x0
LCPI56_1:
	.quad	4841369599423283200     ## double 4.503600e+15
	.quad	4985484787499139072     ## double 1.934281e+25
	.section	__TEXT,__text,regular,pure_instructions
	.globl	__ZN3fid10FidFactory11GradientFidERKNSt3__16vectorIdNS1_9allocatorIdEEEERS5_bb
	.align	4, 0x90
__ZN3fid10FidFactory11GradientFidERKNSt3__16vectorIdNS1_9allocatorIdEEEERS5_bb: ## @_ZN3fid10FidFactory11GradientFidERKNSt3__16vectorIdNS1_9allocatorIdEEEERS5_bb
	.cfi_startproc
## BB#0:
	pushq	%rbp
Ltmp257:
	.cfi_def_cfa_offset 16
Ltmp258:
	.cfi_offset %rbp, -16
	movq	%rsp, %rbp
Ltmp259:
	.cfi_def_cfa_register %rbp
	subq	$656, %rsp              ## imm = 0x290
	movb	%r8b, %al
	movb	%cl, %r9b
	movq	%rdi, -488(%rbp)
	movq	%rsi, -496(%rbp)
	movq	%rdx, -504(%rbp)
	andb	$1, %r9b
	movb	%r9b, -505(%rbp)
	andb	$1, %al
	movb	%al, -506(%rbp)
	movq	-488(%rbp), %rdx
	movq	200(%rdx), %rsi
	movq	(%rsi), %rdi
	movq	%rdi, -608(%rbp)        ## 8-byte Spill
	movq	%rsi, %rdi
	movq	-608(%rbp), %rsi        ## 8-byte Reload
	movq	%rdx, -616(%rbp)        ## 8-byte Spill
	callq	*1272(%rsi)
	testb	$1, %al
	jne	LBB56_2
## BB#1:
	movq	__ZNSt3__14coutE@GOTPCREL(%rip), %rdi
	leaq	L_.str26(%rip), %rsi
	callq	__ZNSt3__1lsINS_11char_traitsIcEEEERNS_13basic_ostreamIcT_EES6_PKc
	leaq	__ZNSt3__14endlIcNS_11char_traitsIcEEEERNS_13basic_ostreamIT_T0_EES7_(%rip), %rsi
	movq	%rax, -472(%rbp)
	movq	%rsi, -480(%rbp)
	movq	-472(%rbp), %rdi
	callq	*-480(%rbp)
	movq	%rax, -624(%rbp)        ## 8-byte Spill
	jmp	LBB56_18
LBB56_2:
	leaq	-520(%rbp), %rdx
	xorps	%xmm0, %xmm0
	movq	__ZN3fid3sim11num_samplesE@GOTPCREL(%rip), %rax
	movq	-504(%rbp), %rdi
	movslq	(%rax), %rsi
	movsd	%xmm0, -520(%rbp)
	callq	__ZNSt3__16vectorIdNS_9allocatorIdEEE6assignEmRKd
	leaq	-360(%rbp), %rax
	leaq	-432(%rbp), %rdx
	movq	-496(%rbp), %rsi
	movq	%rsi, -528(%rbp)
	movq	-528(%rbp), %rsi
	movq	%rsi, -464(%rbp)
	movq	-464(%rbp), %rsi
	movq	(%rsi), %rdi
	movq	%rsi, -440(%rbp)
	movq	%rdi, -448(%rbp)
	movq	-448(%rbp), %rsi
	movq	%rdx, -416(%rbp)
	movq	%rsi, -424(%rbp)
	movq	-416(%rbp), %rdx
	movq	-424(%rbp), %rsi
	movq	%rdx, -400(%rbp)
	movq	%rsi, -408(%rbp)
	movq	-400(%rbp), %rdx
	movq	-408(%rbp), %rsi
	movq	%rsi, (%rdx)
	movq	-432(%rbp), %rdx
	movq	%rdx, -456(%rbp)
	movq	-456(%rbp), %rdx
	movq	%rdx, -536(%rbp)
	movq	-528(%rbp), %rdx
	movq	%rdx, -392(%rbp)
	movq	-392(%rbp), %rdx
	movq	8(%rdx), %rsi
	movq	%rdx, -368(%rbp)
	movq	%rsi, -376(%rbp)
	movq	-376(%rbp), %rdx
	movq	%rax, -344(%rbp)
	movq	%rdx, -352(%rbp)
	movq	-344(%rbp), %rax
	movq	-352(%rbp), %rdx
	movq	%rax, -328(%rbp)
	movq	%rdx, -336(%rbp)
	movq	-328(%rbp), %rax
	movq	-336(%rbp), %rdx
	movq	%rdx, (%rax)
	movq	-360(%rbp), %rax
	movq	%rax, -384(%rbp)
	movq	-384(%rbp), %rax
	movq	%rax, -544(%rbp)
LBB56_3:                                ## =>This Loop Header: Depth=1
                                        ##     Child Loop BB56_5 Depth 2
	leaq	-544(%rbp), %rax
	leaq	-536(%rbp), %rcx
	movq	%rcx, -312(%rbp)
	movq	%rax, -320(%rbp)
	movq	-312(%rbp), %rax
	movq	-320(%rbp), %rcx
	movq	%rax, -296(%rbp)
	movq	%rcx, -304(%rbp)
	movq	-296(%rbp), %rax
	movq	%rax, -288(%rbp)
	movq	-288(%rbp), %rax
	movq	(%rax), %rax
	movq	-304(%rbp), %rcx
	movq	%rcx, -280(%rbp)
	movq	-280(%rbp), %rcx
	cmpq	(%rcx), %rax
	sete	%dl
	xorb	$1, %dl
	testb	$1, %dl
	jne	LBB56_4
	jmp	LBB56_10
LBB56_4:                                ##   in Loop: Header=BB56_3 Depth=1
	leaq	-536(%rbp), %rax
	movq	%rax, -8(%rbp)
	movq	-8(%rbp), %rax
	movq	(%rax), %rax
	movq	%rax, -552(%rbp)
	movq	-616(%rbp), %rax        ## 8-byte Reload
	movq	208(%rax), %rcx
	movq	(%rcx), %rdx
	movq	968(%rdx), %rdx
	movq	-552(%rbp), %rsi
	movsd	(%rsi), %xmm0
	movq	%rax, %rdi
	movq	%rcx, -632(%rbp)        ## 8-byte Spill
	movq	%rdx, -640(%rbp)        ## 8-byte Spill
	callq	__ZN3fid10FidFactory12GetTreeIndexEd
	xorl	%edx, %edx
	movslq	%eax, %rsi
	movq	-632(%rbp), %rdi        ## 8-byte Reload
	movq	-640(%rbp), %rcx        ## 8-byte Reload
	callq	*%rcx
	movl	$0, -556(%rbp)
	movl	%eax, -644(%rbp)        ## 4-byte Spill
LBB56_5:                                ##   Parent Loop BB56_3 Depth=1
                                        ## =>  This Inner Loop Header: Depth=2
	movl	-556(%rbp), %eax
	movl	%eax, %ecx
	movq	-504(%rbp), %rdx
	movq	%rdx, -16(%rbp)
	movq	-16(%rbp), %rdx
	movq	8(%rdx), %rsi
	movq	(%rdx), %rdx
	subq	%rdx, %rsi
	sarq	$3, %rsi
	cmpq	%rsi, %rcx
	jae	LBB56_8
## BB#6:                                ##   in Loop: Header=BB56_5 Depth=2
	movq	-616(%rbp), %rax        ## 8-byte Reload
	addq	$216, %rax
	movl	-556(%rbp), %ecx
	movl	%ecx, %edx
	movq	%rax, -24(%rbp)
	movq	%rdx, -32(%rbp)
	movq	-24(%rbp), %rax
	movq	-32(%rbp), %rdx
	movq	(%rax), %rax
	movsd	(%rax,%rdx,8), %xmm0
	movq	-504(%rbp), %rax
	movl	-556(%rbp), %ecx
	movl	%ecx, %edx
	movq	%rax, -40(%rbp)
	movq	%rdx, -48(%rbp)
	movq	-40(%rbp), %rax
	movq	-48(%rbp), %rdx
	movq	(%rax), %rax
	movsd	(%rax,%rdx,8), %xmm1
	addsd	%xmm0, %xmm1
	movsd	%xmm1, (%rax,%rdx,8)
## BB#7:                                ##   in Loop: Header=BB56_5 Depth=2
	movl	-556(%rbp), %eax
	addl	$1, %eax
	movl	%eax, -556(%rbp)
	jmp	LBB56_5
LBB56_8:                                ##   in Loop: Header=BB56_3 Depth=1
	jmp	LBB56_9
LBB56_9:                                ##   in Loop: Header=BB56_3 Depth=1
	leaq	-536(%rbp), %rax
	movq	%rax, -56(%rbp)
	movq	-56(%rbp), %rax
	movq	(%rax), %rcx
	addq	$8, %rcx
	movq	%rcx, (%rax)
	jmp	LBB56_3
LBB56_10:
	leaq	-176(%rbp), %rax
	leaq	-104(%rbp), %rcx
	movq	__ZN3fid3sim9amplitudeE@GOTPCREL(%rip), %rdx
	movsd	(%rdx), %xmm0
	movq	-496(%rbp), %rdx
	movq	%rdx, -64(%rbp)
	movq	(%rdx), %rsi
	movq	8(%rdx), %rdx
	subq	%rsi, %rdx
	sarq	$3, %rdx
	movd	%rdx, %xmm1
	movaps	LCPI56_0(%rip), %xmm2
	punpckldq	%xmm2, %xmm1    ## xmm1 = xmm1[0],xmm2[0],xmm1[1],xmm2[1]
	movapd	LCPI56_1(%rip), %xmm2
	subpd	%xmm2, %xmm1
	haddpd	%xmm1, %xmm1
	divsd	%xmm1, %xmm0
	movsd	%xmm0, -568(%rbp)
	movq	-504(%rbp), %rdx
	movq	%rdx, -576(%rbp)
	movq	-576(%rbp), %rdx
	movq	%rdx, -136(%rbp)
	movq	-136(%rbp), %rdx
	movq	(%rdx), %rsi
	movq	%rdx, -112(%rbp)
	movq	%rsi, -120(%rbp)
	movq	-120(%rbp), %rdx
	movq	%rcx, -88(%rbp)
	movq	%rdx, -96(%rbp)
	movq	-88(%rbp), %rcx
	movq	-96(%rbp), %rdx
	movq	%rcx, -72(%rbp)
	movq	%rdx, -80(%rbp)
	movq	-72(%rbp), %rcx
	movq	-80(%rbp), %rdx
	movq	%rdx, (%rcx)
	movq	-104(%rbp), %rcx
	movq	%rcx, -128(%rbp)
	movq	-128(%rbp), %rcx
	movq	%rcx, -584(%rbp)
	movq	-576(%rbp), %rcx
	movq	%rcx, -208(%rbp)
	movq	-208(%rbp), %rcx
	movq	8(%rcx), %rdx
	movq	%rcx, -184(%rbp)
	movq	%rdx, -192(%rbp)
	movq	-192(%rbp), %rcx
	movq	%rax, -160(%rbp)
	movq	%rcx, -168(%rbp)
	movq	-160(%rbp), %rax
	movq	-168(%rbp), %rcx
	movq	%rax, -144(%rbp)
	movq	%rcx, -152(%rbp)
	movq	-144(%rbp), %rax
	movq	-152(%rbp), %rcx
	movq	%rcx, (%rax)
	movq	-176(%rbp), %rax
	movq	%rax, -200(%rbp)
	movq	-200(%rbp), %rax
	movq	%rax, -592(%rbp)
LBB56_11:                               ## =>This Inner Loop Header: Depth=1
	leaq	-592(%rbp), %rax
	leaq	-584(%rbp), %rcx
	movq	%rcx, -248(%rbp)
	movq	%rax, -256(%rbp)
	movq	-248(%rbp), %rax
	movq	-256(%rbp), %rcx
	movq	%rax, -232(%rbp)
	movq	%rcx, -240(%rbp)
	movq	-232(%rbp), %rax
	movq	%rax, -224(%rbp)
	movq	-224(%rbp), %rax
	movq	(%rax), %rax
	movq	-240(%rbp), %rcx
	movq	%rcx, -216(%rbp)
	movq	-216(%rbp), %rcx
	cmpq	(%rcx), %rax
	sete	%dl
	xorb	$1, %dl
	testb	$1, %dl
	jne	LBB56_12
	jmp	LBB56_14
LBB56_12:                               ##   in Loop: Header=BB56_11 Depth=1
	movq	__ZN3fid3sim8baselineE@GOTPCREL(%rip), %rax
	leaq	-584(%rbp), %rcx
	movq	%rcx, -264(%rbp)
	movq	-264(%rbp), %rcx
	movq	(%rcx), %rcx
	movq	%rcx, -600(%rbp)
	movq	-600(%rbp), %rcx
	movsd	(%rcx), %xmm0
	mulsd	-568(%rbp), %xmm0
	addsd	(%rax), %xmm0
	movq	-600(%rbp), %rax
	movsd	%xmm0, (%rax)
## BB#13:                               ##   in Loop: Header=BB56_11 Depth=1
	leaq	-584(%rbp), %rax
	movq	%rax, -272(%rbp)
	movq	-272(%rbp), %rax
	movq	(%rax), %rcx
	addq	$8, %rcx
	movq	%rcx, (%rax)
	jmp	LBB56_11
LBB56_14:
	testb	$1, -505(%rbp)
	je	LBB56_16
## BB#15:
	movq	__ZN3fid3sim3snrE@GOTPCREL(%rip), %rax
	movq	-504(%rbp), %rdi
	movsd	(%rax), %xmm0
	callq	__ZN3fid8addnoiseIdEEvRNSt3__16vectorIT_NS1_9allocatorIS3_EEEES3_
LBB56_16:
	testb	$1, -506(%rbp)
	je	LBB56_18
## BB#17:
	movq	-504(%rbp), %rdi
	callq	__ZN3fid5floorIdEEvRNSt3__16vectorIT_NS1_9allocatorIS3_EEEE
LBB56_18:
	addq	$656, %rsp              ## imm = 0x290
	popq	%rbp
	retq
	.cfi_endproc

	.section	__TEXT,__textcoal_nt,coalesced,pure_instructions
	.globl	__ZNSt3__16vectorIdNS_9allocatorIdEEE6assignEmRKd
	.weak_def_can_be_hidden	__ZNSt3__16vectorIdNS_9allocatorIdEEE6assignEmRKd
	.align	4, 0x90
__ZNSt3__16vectorIdNS_9allocatorIdEEE6assignEmRKd: ## @_ZNSt3__16vectorIdNS_9allocatorIdEEE6assignEmRKd
	.cfi_startproc
	.cfi_personality 155, ___gxx_personality_v0
Leh_func_begin57:
	.cfi_lsda 16, Lexception57
## BB#0:
	pushq	%rbp
Ltmp263:
	.cfi_def_cfa_offset 16
Ltmp264:
	.cfi_offset %rbp, -16
	movq	%rsp, %rbp
Ltmp265:
	.cfi_def_cfa_register %rbp
	subq	$1008, %rsp             ## imm = 0x3F0
	movq	%rdi, -856(%rbp)
	movq	%rsi, -864(%rbp)
	movq	%rdx, -872(%rbp)
	movq	-856(%rbp), %rdx
	movq	-864(%rbp), %rsi
	movq	%rdx, -848(%rbp)
	movq	-848(%rbp), %rdi
	movq	%rdi, -840(%rbp)
	movq	-840(%rbp), %rdi
	movq	%rdi, -832(%rbp)
	movq	-832(%rbp), %rax
	addq	$16, %rax
	movq	%rax, -824(%rbp)
	movq	-824(%rbp), %rax
	movq	%rax, -816(%rbp)
	movq	-816(%rbp), %rax
	movq	(%rax), %rax
	movq	(%rdi), %rdi
	subq	%rdi, %rax
	sarq	$3, %rax
	cmpq	%rax, %rsi
	movq	%rdx, -888(%rbp)        ## 8-byte Spill
	ja	LBB57_20
## BB#1:
	leaq	-576(%rbp), %rax
	leaq	-880(%rbp), %rcx
	leaq	-864(%rbp), %rdx
	movq	-888(%rbp), %rsi        ## 8-byte Reload
	movq	%rsi, -624(%rbp)
	movq	-624(%rbp), %rdi
	movq	8(%rdi), %r8
	movq	(%rdi), %rdi
	subq	%rdi, %r8
	sarq	$3, %r8
	movq	%r8, -880(%rbp)
	movq	(%rsi), %rdi
	movq	%rdx, -600(%rbp)
	movq	%rcx, -608(%rbp)
	movq	-600(%rbp), %rcx
	movq	-608(%rbp), %rdx
	movq	%rcx, -584(%rbp)
	movq	%rdx, -592(%rbp)
	movq	-592(%rbp), %rcx
	movq	-584(%rbp), %rdx
	movq	%rax, -552(%rbp)
	movq	%rcx, -560(%rbp)
	movq	%rdx, -568(%rbp)
	movq	-560(%rbp), %rax
	movq	(%rax), %rax
	movq	-568(%rbp), %rcx
	cmpq	(%rcx), %rax
	movq	%rdi, -896(%rbp)        ## 8-byte Spill
	jae	LBB57_3
## BB#2:
	movq	-592(%rbp), %rax
	movq	%rax, -904(%rbp)        ## 8-byte Spill
	jmp	LBB57_4
LBB57_3:
	movq	-584(%rbp), %rax
	movq	%rax, -904(%rbp)        ## 8-byte Spill
LBB57_4:                                ## %_ZNSt3__13minImEERKT_S3_S3_.exit
	movq	-904(%rbp), %rax        ## 8-byte Reload
	movq	(%rax), %rax
	movq	-872(%rbp), %rcx
	movq	-896(%rbp), %rdx        ## 8-byte Reload
	movq	%rdx, -368(%rbp)
	movq	%rax, -376(%rbp)
	movq	%rcx, -384(%rbp)
	movq	-368(%rbp), %rax
	movq	-376(%rbp), %rcx
	movq	-384(%rbp), %rsi
	movq	%rax, -344(%rbp)
	movq	%rcx, -352(%rbp)
	movq	%rsi, -360(%rbp)
LBB57_5:                                ## =>This Inner Loop Header: Depth=1
	cmpq	$0, -352(%rbp)
	jbe	LBB57_7
## BB#6:                                ##   in Loop: Header=BB57_5 Depth=1
	movq	-360(%rbp), %rax
	movsd	(%rax), %xmm0
	movq	-344(%rbp), %rax
	movsd	%xmm0, (%rax)
	movq	-344(%rbp), %rax
	addq	$8, %rax
	movq	%rax, -344(%rbp)
	movq	-352(%rbp), %rax
	addq	$-1, %rax
	movq	%rax, -352(%rbp)
	jmp	LBB57_5
LBB57_7:                                ## %_ZNSt3__16fill_nIPdmdEET_S2_T0_RKT1_.exit
	movq	-864(%rbp), %rax
	cmpq	-880(%rbp), %rax
	jbe	LBB57_13
## BB#8:
	movq	-864(%rbp), %rax
	subq	-880(%rbp), %rax
	movq	-872(%rbp), %rcx
	movq	-888(%rbp), %rdx        ## 8-byte Reload
	movq	%rdx, -312(%rbp)
	movq	%rax, -320(%rbp)
	movq	%rcx, -328(%rbp)
	movq	-312(%rbp), %rax
	movq	%rax, %rcx
	movq	%rcx, -304(%rbp)
	movq	-304(%rbp), %rcx
	addq	$16, %rcx
	movq	%rcx, -296(%rbp)
	movq	-296(%rbp), %rcx
	movq	%rcx, -288(%rbp)
	movq	-288(%rbp), %rcx
	movq	%rcx, -336(%rbp)
	movq	-320(%rbp), %rsi
	movq	%rax, %rdi
	movq	%rax, -912(%rbp)        ## 8-byte Spill
	callq	__ZNSt3__16vectorIdNS_9allocatorIdEEE19__annotate_increaseEm
LBB57_9:                                ## =>This Inner Loop Header: Depth=1
	movq	-336(%rbp), %rax
	movq	-912(%rbp), %rcx        ## 8-byte Reload
	movq	8(%rcx), %rdx
	movq	%rdx, -160(%rbp)
	movq	-160(%rbp), %rdx
	movq	-328(%rbp), %rsi
	movq	%rax, -248(%rbp)
	movq	%rdx, -256(%rbp)
	movq	%rsi, -264(%rbp)
	movq	-248(%rbp), %rax
	movq	-256(%rbp), %rdx
	movq	-264(%rbp), %rsi
	movq	%rsi, -240(%rbp)
	movq	-240(%rbp), %rsi
	movq	%rax, -216(%rbp)
	movq	%rdx, -224(%rbp)
	movq	%rsi, -232(%rbp)
	movq	-216(%rbp), %rax
	movq	-224(%rbp), %rdx
	movq	-232(%rbp), %rsi
	movq	%rsi, -200(%rbp)
	movq	-200(%rbp), %rsi
	movq	%rax, -176(%rbp)
	movq	%rdx, -184(%rbp)
	movq	%rsi, -192(%rbp)
	movq	-184(%rbp), %rax
	cmpq	$0, %rax
	movq	%rax, -920(%rbp)        ## 8-byte Spill
	je	LBB57_11
## BB#10:                               ##   in Loop: Header=BB57_9 Depth=1
	movq	-920(%rbp), %rax        ## 8-byte Reload
	movq	-192(%rbp), %rcx
	movq	%rcx, -168(%rbp)
	movq	-168(%rbp), %rcx
	movsd	(%rcx), %xmm0
	movq	-920(%rbp), %rcx        ## 8-byte Reload
	movsd	%xmm0, (%rcx)
	movq	%rax, -928(%rbp)        ## 8-byte Spill
LBB57_11:                               ## %_ZNSt3__116allocator_traitsINS_9allocatorIdEEE9constructIdJRKdEEEvRS2_PT_DpOT0_.exit.i2
                                        ##   in Loop: Header=BB57_9 Depth=1
	movq	-912(%rbp), %rax        ## 8-byte Reload
	movq	8(%rax), %rcx
	addq	$8, %rcx
	movq	%rcx, 8(%rax)
	movq	-320(%rbp), %rcx
	addq	$-1, %rcx
	movq	%rcx, -320(%rbp)
	cmpq	$0, -320(%rbp)
	ja	LBB57_9
## BB#12:                               ## %_ZNSt3__16vectorIdNS_9allocatorIdEEE18__construct_at_endEmRKd.exit3
	jmp	LBB57_19
LBB57_13:
	movq	-888(%rbp), %rax        ## 8-byte Reload
	movq	(%rax), %rcx
	movq	-864(%rbp), %rdx
	shlq	$3, %rdx
	addq	%rdx, %rcx
	movq	%rax, -136(%rbp)
	movq	%rcx, -144(%rbp)
	movq	-136(%rbp), %rcx
	movq	%rcx, -128(%rbp)
	movq	-128(%rbp), %rdx
	movq	8(%rdx), %rsi
	movq	(%rdx), %rdx
	subq	%rdx, %rsi
	sarq	$3, %rsi
	movq	%rsi, -152(%rbp)
	movq	%rcx, %rdx
	movq	-144(%rbp), %rsi
	movq	%rdx, -112(%rbp)
	movq	%rsi, -120(%rbp)
	movq	-112(%rbp), %rdx
	movq	%rcx, -936(%rbp)        ## 8-byte Spill
	movq	%rdx, -944(%rbp)        ## 8-byte Spill
LBB57_14:                               ## =>This Inner Loop Header: Depth=1
	movq	-120(%rbp), %rax
	movq	-944(%rbp), %rcx        ## 8-byte Reload
	cmpq	8(%rcx), %rax
	je	LBB57_16
## BB#15:                               ##   in Loop: Header=BB57_14 Depth=1
	movq	-944(%rbp), %rax        ## 8-byte Reload
	movq	%rax, -104(%rbp)
	movq	-104(%rbp), %rcx
	addq	$16, %rcx
	movq	%rcx, -96(%rbp)
	movq	-96(%rbp), %rcx
	movq	%rcx, -88(%rbp)
	movq	-88(%rbp), %rcx
	movq	8(%rax), %rdx
	addq	$-8, %rdx
	movq	%rdx, 8(%rax)
	movq	%rdx, -80(%rbp)
	movq	-80(%rbp), %rdx
	movq	%rcx, -48(%rbp)
	movq	%rdx, -56(%rbp)
	movq	-48(%rbp), %rcx
	movq	-56(%rbp), %rdx
	movq	%rcx, -32(%rbp)
	movq	%rdx, -40(%rbp)
	movq	-32(%rbp), %rcx
	movq	-40(%rbp), %rdx
	movq	%rcx, -8(%rbp)
	movq	%rdx, -16(%rbp)
	jmp	LBB57_14
LBB57_16:                               ## %_ZNSt3__113__vector_baseIdNS_9allocatorIdEEE17__destruct_at_endEPd.exit.i
	movq	-152(%rbp), %rsi
Ltmp260:
	movq	-936(%rbp), %rdi        ## 8-byte Reload
	callq	__ZNSt3__16vectorIdNS_9allocatorIdEEE17__annotate_shrinkEm
Ltmp261:
	jmp	LBB57_18
LBB57_17:
Ltmp262:
	movl	%edx, %ecx
	movq	%rax, %rdi
	movl	%ecx, -948(%rbp)        ## 4-byte Spill
	callq	___clang_call_terminate
LBB57_18:                               ## %_ZNSt3__16vectorIdNS_9allocatorIdEEE17__destruct_at_endEPd.exit
	jmp	LBB57_19
LBB57_19:
	jmp	LBB57_33
LBB57_20:
	movq	-888(%rbp), %rdi        ## 8-byte Reload
	callq	__ZNSt3__16vectorIdNS_9allocatorIdEEE10deallocateEv
	movq	-864(%rbp), %rdi
	movq	-888(%rbp), %rax        ## 8-byte Reload
	movq	%rax, -512(%rbp)
	movq	%rdi, -520(%rbp)
	movq	-512(%rbp), %rdi
	movq	%rdi, -960(%rbp)        ## 8-byte Spill
	callq	__ZNKSt3__16vectorIdNS_9allocatorIdEEE8max_sizeEv
	movq	%rax, -528(%rbp)
	movq	-520(%rbp), %rax
	cmpq	-528(%rbp), %rax
	jbe	LBB57_22
## BB#21:
	movq	-960(%rbp), %rax        ## 8-byte Reload
	movq	%rax, %rdi
	callq	__ZNKSt3__120__vector_base_commonILb1EE20__throw_length_errorEv
LBB57_22:
	movq	-960(%rbp), %rax        ## 8-byte Reload
	movq	%rax, -496(%rbp)
	movq	-496(%rbp), %rcx
	movq	%rcx, -488(%rbp)
	movq	-488(%rbp), %rcx
	movq	%rcx, -480(%rbp)
	movq	-480(%rbp), %rdx
	addq	$16, %rdx
	movq	%rdx, -472(%rbp)
	movq	-472(%rbp), %rdx
	movq	%rdx, -464(%rbp)
	movq	-464(%rbp), %rdx
	movq	(%rdx), %rdx
	movq	(%rcx), %rcx
	subq	%rcx, %rdx
	sarq	$3, %rdx
	movq	%rdx, -536(%rbp)
	movq	-536(%rbp), %rcx
	movq	-528(%rbp), %rdx
	shrq	$1, %rdx
	cmpq	%rdx, %rcx
	jb	LBB57_24
## BB#23:
	movq	-528(%rbp), %rax
	movq	%rax, -504(%rbp)
	jmp	LBB57_28
LBB57_24:
	leaq	-416(%rbp), %rax
	leaq	-520(%rbp), %rcx
	leaq	-544(%rbp), %rdx
	movq	-536(%rbp), %rsi
	shlq	$1, %rsi
	movq	%rsi, -544(%rbp)
	movq	%rdx, -440(%rbp)
	movq	%rcx, -448(%rbp)
	movq	-440(%rbp), %rcx
	movq	-448(%rbp), %rdx
	movq	%rcx, -424(%rbp)
	movq	%rdx, -432(%rbp)
	movq	-424(%rbp), %rcx
	movq	-432(%rbp), %rdx
	movq	%rax, -392(%rbp)
	movq	%rcx, -400(%rbp)
	movq	%rdx, -408(%rbp)
	movq	-400(%rbp), %rax
	movq	(%rax), %rax
	movq	-408(%rbp), %rcx
	cmpq	(%rcx), %rax
	jae	LBB57_26
## BB#25:
	movq	-432(%rbp), %rax
	movq	%rax, -968(%rbp)        ## 8-byte Spill
	jmp	LBB57_27
LBB57_26:
	movq	-424(%rbp), %rax
	movq	%rax, -968(%rbp)        ## 8-byte Spill
LBB57_27:                               ## %_ZNSt3__13maxImEERKT_S3_S3_.exit.i
	movq	-968(%rbp), %rax        ## 8-byte Reload
	movq	(%rax), %rax
	movq	%rax, -504(%rbp)
LBB57_28:                               ## %_ZNKSt3__16vectorIdNS_9allocatorIdEEE11__recommendEm.exit
	movq	-504(%rbp), %rsi
	movq	-888(%rbp), %rdi        ## 8-byte Reload
	callq	__ZNSt3__16vectorIdNS_9allocatorIdEEE8allocateEm
	movq	-864(%rbp), %rsi
	movq	-872(%rbp), %rdi
	movq	-888(%rbp), %rax        ## 8-byte Reload
	movq	%rax, -784(%rbp)
	movq	%rsi, -792(%rbp)
	movq	%rdi, -800(%rbp)
	movq	-784(%rbp), %rsi
	movq	%rsi, %rdi
	movq	%rdi, -776(%rbp)
	movq	-776(%rbp), %rdi
	addq	$16, %rdi
	movq	%rdi, -768(%rbp)
	movq	-768(%rbp), %rdi
	movq	%rdi, -760(%rbp)
	movq	-760(%rbp), %rdi
	movq	%rdi, -808(%rbp)
	movq	-792(%rbp), %rdi
	movq	%rdi, -976(%rbp)        ## 8-byte Spill
	movq	%rsi, %rdi
	movq	-976(%rbp), %rcx        ## 8-byte Reload
	movq	%rsi, -984(%rbp)        ## 8-byte Spill
	movq	%rcx, %rsi
	callq	__ZNSt3__16vectorIdNS_9allocatorIdEEE19__annotate_increaseEm
LBB57_29:                               ## =>This Inner Loop Header: Depth=1
	movq	-808(%rbp), %rax
	movq	-984(%rbp), %rcx        ## 8-byte Reload
	movq	8(%rcx), %rdx
	movq	%rdx, -632(%rbp)
	movq	-632(%rbp), %rdx
	movq	-800(%rbp), %rsi
	movq	%rax, -720(%rbp)
	movq	%rdx, -728(%rbp)
	movq	%rsi, -736(%rbp)
	movq	-720(%rbp), %rax
	movq	-728(%rbp), %rdx
	movq	-736(%rbp), %rsi
	movq	%rsi, -712(%rbp)
	movq	-712(%rbp), %rsi
	movq	%rax, -688(%rbp)
	movq	%rdx, -696(%rbp)
	movq	%rsi, -704(%rbp)
	movq	-688(%rbp), %rax
	movq	-696(%rbp), %rdx
	movq	-704(%rbp), %rsi
	movq	%rsi, -672(%rbp)
	movq	-672(%rbp), %rsi
	movq	%rax, -648(%rbp)
	movq	%rdx, -656(%rbp)
	movq	%rsi, -664(%rbp)
	movq	-656(%rbp), %rax
	cmpq	$0, %rax
	movq	%rax, -992(%rbp)        ## 8-byte Spill
	je	LBB57_31
## BB#30:                               ##   in Loop: Header=BB57_29 Depth=1
	movq	-992(%rbp), %rax        ## 8-byte Reload
	movq	-664(%rbp), %rcx
	movq	%rcx, -640(%rbp)
	movq	-640(%rbp), %rcx
	movsd	(%rcx), %xmm0
	movq	-992(%rbp), %rcx        ## 8-byte Reload
	movsd	%xmm0, (%rcx)
	movq	%rax, -1000(%rbp)       ## 8-byte Spill
LBB57_31:                               ## %_ZNSt3__116allocator_traitsINS_9allocatorIdEEE9constructIdJRKdEEEvRS2_PT_DpOT0_.exit.i
                                        ##   in Loop: Header=BB57_29 Depth=1
	movq	-984(%rbp), %rax        ## 8-byte Reload
	movq	8(%rax), %rcx
	addq	$8, %rcx
	movq	%rcx, 8(%rax)
	movq	-792(%rbp), %rcx
	addq	$-1, %rcx
	movq	%rcx, -792(%rbp)
	cmpq	$0, -792(%rbp)
	ja	LBB57_29
## BB#32:                               ## %_ZNSt3__16vectorIdNS_9allocatorIdEEE18__construct_at_endEmRKd.exit
	jmp	LBB57_33
LBB57_33:
	addq	$1008, %rsp             ## imm = 0x3F0
	popq	%rbp
	retq
	.cfi_endproc
Leh_func_end57:
	.section	__TEXT,__gcc_except_tab
	.align	2
GCC_except_table57:
Lexception57:
	.byte	255                     ## @LPStart Encoding = omit
	.byte	155                     ## @TType Encoding = indirect pcrel sdata4
	.asciz	"\257\200"              ## @TType base offset
	.byte	3                       ## Call site Encoding = udata4
	.byte	39                      ## Call site table length
Lset71 = Leh_func_begin57-Leh_func_begin57 ## >> Call Site 1 <<
	.long	Lset71
Lset72 = Ltmp260-Leh_func_begin57       ##   Call between Leh_func_begin57 and Ltmp260
	.long	Lset72
	.long	0                       ##     has no landing pad
	.byte	0                       ##   On action: cleanup
Lset73 = Ltmp260-Leh_func_begin57       ## >> Call Site 2 <<
	.long	Lset73
Lset74 = Ltmp261-Ltmp260                ##   Call between Ltmp260 and Ltmp261
	.long	Lset74
Lset75 = Ltmp262-Leh_func_begin57       ##     jumps to Ltmp262
	.long	Lset75
	.byte	1                       ##   On action: 1
Lset76 = Ltmp261-Leh_func_begin57       ## >> Call Site 3 <<
	.long	Lset76
Lset77 = Leh_func_end57-Ltmp261         ##   Call between Ltmp261 and Leh_func_end57
	.long	Lset77
	.long	0                       ##     has no landing pad
	.byte	0                       ##   On action: cleanup
	.byte	1                       ## >> Action Record 1 <<
                                        ##   Catch TypeInfo 1
	.byte	0                       ##   No further actions
                                        ## >> Catch TypeInfos <<
	.long	0                       ## TypeInfo 1
	.align	2

	.section	__TEXT,__literal8,8byte_literals
	.align	3
LCPI58_0:
	.quad	4602678819172646912     ## double 0.5
	.section	__TEXT,__text,regular,pure_instructions
	.globl	__ZN3fid10FidFactory12GetTreeIndexEd
	.align	4, 0x90
__ZN3fid10FidFactory12GetTreeIndexEd:   ## @_ZN3fid10FidFactory12GetTreeIndexEd
	.cfi_startproc
## BB#0:
	pushq	%rbp
Ltmp266:
	.cfi_def_cfa_offset 16
Ltmp267:
	.cfi_offset %rbp, -16
	movq	%rsp, %rbp
Ltmp268:
	.cfi_def_cfa_register %rbp
	subq	$32, %rsp
	movsd	LCPI58_0(%rip), %xmm1
	movq	%rdi, -8(%rbp)
	movsd	%xmm0, -16(%rbp)
	movq	-8(%rbp), %rdi
	movsd	-16(%rbp), %xmm0
	divsd	192(%rdi), %xmm0
	cvtsi2sdl	188(%rdi), %xmm2
	addsd	%xmm2, %xmm0
	movsd	%xmm1, -24(%rbp)        ## 8-byte Spill
	callq	_nearbyint
	movsd	-24(%rbp), %xmm1        ## 8-byte Reload
	addsd	%xmm1, %xmm0
	cvttsd2si	%xmm0, %eax
	addq	$32, %rsp
	popq	%rbp
	retq
	.cfi_endproc

	.globl	__ZN3fid10FidFactory19PrintDiagnosticInfoEv
	.align	4, 0x90
__ZN3fid10FidFactory19PrintDiagnosticInfoEv: ## @_ZN3fid10FidFactory19PrintDiagnosticInfoEv
	.cfi_startproc
## BB#0:
	pushq	%rbp
Ltmp269:
	.cfi_def_cfa_offset 16
Ltmp270:
	.cfi_offset %rbp, -16
	movq	%rsp, %rbp
Ltmp271:
	.cfi_def_cfa_register %rbp
	subq	$128, %rsp
	leaq	__ZNSt3__14endlIcNS_11char_traitsIcEEEERNS_13basic_ostreamIT_T0_EES7_(%rip), %rax
	movq	__ZNSt3__14coutE@GOTPCREL(%rip), %rcx
	movq	%rdi, -72(%rbp)
	movq	-72(%rbp), %rdi
	movq	%rcx, -56(%rbp)
	movq	%rax, -64(%rbp)
	movq	-56(%rbp), %rax
	movq	%rdi, -80(%rbp)         ## 8-byte Spill
	movq	%rax, %rdi
	callq	*-64(%rbp)
	movq	__ZNSt3__14coutE@GOTPCREL(%rip), %rdi
	leaq	L_.str27(%rip), %rsi
	movq	%rax, -88(%rbp)         ## 8-byte Spill
	callq	__ZNSt3__1lsINS_11char_traitsIcEEEERNS_13basic_ostreamIcT_EES6_PKc
	movq	-80(%rbp), %rcx         ## 8-byte Reload
	movq	%rax, %rdi
	movq	%rcx, %rsi
	callq	__ZNSt3__113basic_ostreamIcNS_11char_traitsIcEEElsEPKv
	leaq	__ZNSt3__14endlIcNS_11char_traitsIcEEEERNS_13basic_ostreamIT_T0_EES7_(%rip), %rcx
	movq	%rax, -40(%rbp)
	movq	%rcx, -48(%rbp)
	movq	-40(%rbp), %rdi
	callq	*-48(%rbp)
	movq	__ZNSt3__14coutE@GOTPCREL(%rip), %rdi
	leaq	L_.str28(%rip), %rsi
	movq	%rax, -96(%rbp)         ## 8-byte Spill
	callq	__ZNSt3__1lsINS_11char_traitsIcEEEERNS_13basic_ostreamIcT_EES6_PKc
	movq	-80(%rbp), %rcx         ## 8-byte Reload
	movsd	16(%rcx), %xmm0
	movq	%rax, %rdi
	callq	__ZNSt3__113basic_ostreamIcNS_11char_traitsIcEEElsEd
	leaq	L_.str29(%rip), %rsi
	movq	%rax, %rdi
	callq	__ZNSt3__1lsINS_11char_traitsIcEEEERNS_13basic_ostreamIcT_EES6_PKc
	movq	__ZNSt3__14coutE@GOTPCREL(%rip), %rdi
	movq	__ZN3fid3sim11num_samplesE@GOTPCREL(%rip), %rcx
	movl	(%rcx), %esi
	movq	%rax, -104(%rbp)        ## 8-byte Spill
	callq	__ZNSt3__113basic_ostreamIcNS_11char_traitsIcEEElsEi
	leaq	__ZNSt3__14endlIcNS_11char_traitsIcEEEERNS_13basic_ostreamIT_T0_EES7_(%rip), %rcx
	movq	%rax, -24(%rbp)
	movq	%rcx, -32(%rbp)
	movq	-24(%rbp), %rdi
	callq	*-32(%rbp)
	movq	__ZNSt3__14coutE@GOTPCREL(%rip), %rdi
	leaq	L_.str30(%rip), %rsi
	movq	%rax, -112(%rbp)        ## 8-byte Spill
	callq	__ZNSt3__1lsINS_11char_traitsIcEEEERNS_13basic_ostreamIcT_EES6_PKc
	movq	-80(%rbp), %rcx         ## 8-byte Reload
	movl	28(%rcx), %esi
	movq	%rax, %rdi
	callq	__ZNSt3__113basic_ostreamIcNS_11char_traitsIcEEElsEi
	leaq	L_.str29(%rip), %rsi
	movq	%rax, %rdi
	callq	__ZNSt3__1lsINS_11char_traitsIcEEEERNS_13basic_ostreamIcT_EES6_PKc
	movq	__ZNSt3__14coutE@GOTPCREL(%rip), %rdi
	movq	-80(%rbp), %rcx         ## 8-byte Reload
	movl	24(%rcx), %esi
	movq	%rax, -120(%rbp)        ## 8-byte Spill
	callq	__ZNSt3__113basic_ostreamIcNS_11char_traitsIcEEElsEi
	leaq	__ZNSt3__14endlIcNS_11char_traitsIcEEEERNS_13basic_ostreamIT_T0_EES7_(%rip), %rcx
	movq	%rax, -8(%rbp)
	movq	%rcx, -16(%rbp)
	movq	-8(%rbp), %rdi
	callq	*-16(%rbp)
	movq	%rax, -128(%rbp)        ## 8-byte Spill
	addq	$128, %rsp
	popq	%rbp
	retq
	.cfi_endproc

	.section	__TEXT,__literal8,8byte_literals
	.align	3
LCPI60_0:
	.quad	4618760256179416344     ## double 6.2831853071795862
	.section	__TEXT,__text,regular,pure_instructions
	.globl	__ZN3fid10FidFactory6BfieldERKd
	.align	4, 0x90
__ZN3fid10FidFactory6BfieldERKd:        ## @_ZN3fid10FidFactory6BfieldERKd
	.cfi_startproc
	.cfi_personality 155, ___gxx_personality_v0
Leh_func_begin60:
	.cfi_lsda 16, Lexception60
## BB#0:
	pushq	%rbp
Ltmp282:
	.cfi_def_cfa_offset 16
Ltmp283:
	.cfi_offset %rbp, -16
	movq	%rsp, %rbp
Ltmp284:
	.cfi_def_cfa_register %rbp
	pushq	%rbx
	subq	$760, %rsp              ## imm = 0x2F8
Ltmp285:
	.cfi_offset %rbx, -24
	movq	%rdi, %rax
	movq	___stack_chk_guard@GOTPCREL(%rip), %rcx
	movq	(%rcx), %rcx
	movq	%rcx, -16(%rbp)
	movq	%rsi, -504(%rbp)
	movq	%rdx, -512(%rbp)
	movq	-504(%rbp), %rcx
	cmpb	$0, __ZGVZN3fid10FidFactory6BfieldERKdE1a(%rip)
	movq	%rax, -568(%rbp)        ## 8-byte Spill
	movq	%rdi, -576(%rbp)        ## 8-byte Spill
	movq	%rcx, -584(%rbp)        ## 8-byte Spill
	jne	LBB60_9
## BB#1:
	leaq	__ZGVZN3fid10FidFactory6BfieldERKdE1a(%rip), %rdi
	callq	___cxa_guard_acquire
	cmpl	$0, %eax
	je	LBB60_9
## BB#2:
	leaq	-448(%rbp), %rax
	leaq	-376(%rbp), %rcx
	leaq	-400(%rbp), %rdx
	leaq	__ZZN3fid10FidFactory6BfieldERKdE1a(%rip), %rsi
	leaq	-40(%rbp), %rdi
	xorl	%r8d, %r8d
	movl	$24, %r9d
	movl	%r9d, %r10d
	movq	%rdi, %r11
	movq	%rdi, -592(%rbp)        ## 8-byte Spill
	movq	%r11, %rdi
	movq	%rsi, -600(%rbp)        ## 8-byte Spill
	movl	%r8d, %esi
	movq	%rdx, -608(%rbp)        ## 8-byte Spill
	movq	%r10, %rdx
	movq	%rax, -616(%rbp)        ## 8-byte Spill
	movq	%rcx, -624(%rbp)        ## 8-byte Spill
	callq	_memset
	movq	-592(%rbp), %rax        ## 8-byte Reload
	movq	%rax, -528(%rbp)
	movq	$3, -520(%rbp)
	movq	-528(%rbp), %rcx
	movq	-520(%rbp), %rdx
	movq	%rcx, -488(%rbp)
	movq	%rdx, -480(%rbp)
	movq	-600(%rbp), %rcx        ## 8-byte Reload
	movq	%rcx, -496(%rbp)
	movq	-496(%rbp), %rdx
	movq	-488(%rbp), %rdi
	movq	-480(%rbp), %r10
	movq	%rdi, -448(%rbp)
	movq	%r10, -440(%rbp)
	movq	%rdx, -456(%rbp)
	movq	-456(%rbp), %rdx
	movq	%rdx, %rdi
	movq	%rdi, -432(%rbp)
	movq	-432(%rbp), %rdi
	movq	%rdi, %r10
	movq	%r10, -424(%rbp)
	movq	$0, (%rdi)
	movq	$0, 8(%rdi)
	addq	$16, %rdi
	movq	%rdi, -408(%rbp)
	movq	$0, -416(%rbp)
	movq	-408(%rbp), %rdi
	movq	-416(%rbp), %r10
	movq	%rdi, -392(%rbp)
	movq	%r10, -400(%rbp)
	movq	-392(%rbp), %rdi
	movq	-608(%rbp), %r10        ## 8-byte Reload
	movq	%r10, -384(%rbp)
	movq	-384(%rbp), %r11
	movq	(%r11), %r11
	movq	%rdi, -368(%rbp)
	movq	%r11, -376(%rbp)
	movq	-368(%rbp), %rdi
	movq	%rdi, %r11
	movq	%r11, -360(%rbp)
	movq	-624(%rbp), %r11        ## 8-byte Reload
	movq	%r11, -352(%rbp)
	movq	-352(%rbp), %rbx
	movq	(%rbx), %rbx
	movq	%rbx, (%rdi)
	movq	-616(%rbp), %rdi        ## 8-byte Reload
	movq	%rdi, -344(%rbp)
	movq	-344(%rbp), %rbx
	cmpq	$0, 8(%rbx)
	movq	%rdx, -632(%rbp)        ## 8-byte Spill
	jbe	LBB60_7
## BB#3:
	leaq	-448(%rbp), %rax
	movq	%rax, -336(%rbp)
	movq	-440(%rbp), %rsi
Ltmp272:
	movq	-632(%rbp), %rdi        ## 8-byte Reload
	callq	__ZNSt3__16vectorIdNS_9allocatorIdEEE8allocateEm
Ltmp273:
	jmp	LBB60_4
LBB60_4:
	leaq	-448(%rbp), %rax
	movq	%rax, -320(%rbp)
	movq	-448(%rbp), %rsi
	movq	%rax, -328(%rbp)
	movq	-448(%rbp), %rax
	movq	-440(%rbp), %rcx
	leaq	(%rax,%rcx,8), %rdx
Ltmp274:
	movq	-632(%rbp), %rdi        ## 8-byte Reload
	callq	__ZNSt3__16vectorIdNS_9allocatorIdEEE18__construct_at_endIPKdEENS_9enable_ifIXsr21__is_forward_iteratorIT_EE5valueEvE4typeES8_S8_
Ltmp275:
	jmp	LBB60_5
LBB60_5:
	jmp	LBB60_7
LBB60_6:
Ltmp276:
	movl	%edx, %ecx
	movq	%rax, -464(%rbp)
	movl	%ecx, -468(%rbp)
	movq	-632(%rbp), %rdi        ## 8-byte Reload
	callq	__ZNSt3__113__vector_baseIdNS_9allocatorIdEEED2Ev
	movq	-464(%rbp), %rax
	movl	-468(%rbp), %ecx
	movq	%rax, -640(%rbp)        ## 8-byte Spill
	movl	%ecx, -644(%rbp)        ## 4-byte Spill
	jmp	LBB60_20
LBB60_7:                                ## %_ZNSt3__16vectorIdNS_9allocatorIdEEEC1ESt16initializer_listIdE.exit
	jmp	LBB60_8
LBB60_8:
	movq	__ZNSt3__16vectorIdNS_9allocatorIdEEED1Ev@GOTPCREL(%rip), %rax
	leaq	__ZZN3fid10FidFactory6BfieldERKdE1a(%rip), %rcx
	movq	___dso_handle@GOTPCREL(%rip), %rdx
	movq	%rax, %rdi
	movq	%rcx, %rsi
	callq	___cxa_atexit
	leaq	__ZGVZN3fid10FidFactory6BfieldERKdE1a(%rip), %rdi
	movl	%eax, -648(%rbp)        ## 4-byte Spill
	callq	___cxa_guard_release
LBB60_9:
	cmpb	$0, __ZGVZN3fid10FidFactory6BfieldERKdE1b(%rip)
	jne	LBB60_18
## BB#10:
	leaq	__ZGVZN3fid10FidFactory6BfieldERKdE1b(%rip), %rdi
	callq	___cxa_guard_acquire
	cmpl	$0, %eax
	je	LBB60_18
## BB#11:
	leaq	-264(%rbp), %rax
	leaq	-192(%rbp), %rcx
	leaq	-216(%rbp), %rdx
	leaq	__ZZN3fid10FidFactory6BfieldERKdE1b(%rip), %rsi
	leaq	-64(%rbp), %rdi
	xorl	%r8d, %r8d
	movl	$24, %r9d
	movl	%r9d, %r10d
	movq	%rdi, %r11
	movq	%rdi, -656(%rbp)        ## 8-byte Spill
	movq	%r11, %rdi
	movq	%rsi, -664(%rbp)        ## 8-byte Spill
	movl	%r8d, %esi
	movq	%rdx, -672(%rbp)        ## 8-byte Spill
	movq	%r10, %rdx
	movq	%rax, -680(%rbp)        ## 8-byte Spill
	movq	%rcx, -688(%rbp)        ## 8-byte Spill
	callq	_memset
	movq	-656(%rbp), %rax        ## 8-byte Reload
	movq	%rax, -560(%rbp)
	movq	$3, -552(%rbp)
	movq	-560(%rbp), %rcx
	movq	-552(%rbp), %rdx
	movq	%rcx, -304(%rbp)
	movq	%rdx, -296(%rbp)
	movq	-664(%rbp), %rcx        ## 8-byte Reload
	movq	%rcx, -312(%rbp)
	movq	-312(%rbp), %rdx
	movq	-304(%rbp), %rdi
	movq	-296(%rbp), %r10
	movq	%rdi, -264(%rbp)
	movq	%r10, -256(%rbp)
	movq	%rdx, -272(%rbp)
	movq	-272(%rbp), %rdx
	movq	%rdx, %rdi
	movq	%rdi, -248(%rbp)
	movq	-248(%rbp), %rdi
	movq	%rdi, %r10
	movq	%r10, -240(%rbp)
	movq	$0, (%rdi)
	movq	$0, 8(%rdi)
	addq	$16, %rdi
	movq	%rdi, -224(%rbp)
	movq	$0, -232(%rbp)
	movq	-224(%rbp), %rdi
	movq	-232(%rbp), %r10
	movq	%rdi, -208(%rbp)
	movq	%r10, -216(%rbp)
	movq	-208(%rbp), %rdi
	movq	-672(%rbp), %r10        ## 8-byte Reload
	movq	%r10, -200(%rbp)
	movq	-200(%rbp), %r11
	movq	(%r11), %r11
	movq	%rdi, -184(%rbp)
	movq	%r11, -192(%rbp)
	movq	-184(%rbp), %rdi
	movq	%rdi, %r11
	movq	%r11, -176(%rbp)
	movq	-688(%rbp), %r11        ## 8-byte Reload
	movq	%r11, -168(%rbp)
	movq	-168(%rbp), %rbx
	movq	(%rbx), %rbx
	movq	%rbx, (%rdi)
	movq	-680(%rbp), %rdi        ## 8-byte Reload
	movq	%rdi, -160(%rbp)
	movq	-160(%rbp), %rbx
	cmpq	$0, 8(%rbx)
	movq	%rdx, -696(%rbp)        ## 8-byte Spill
	jbe	LBB60_16
## BB#12:
	leaq	-264(%rbp), %rax
	movq	%rax, -152(%rbp)
	movq	-256(%rbp), %rsi
Ltmp277:
	movq	-696(%rbp), %rdi        ## 8-byte Reload
	callq	__ZNSt3__16vectorIdNS_9allocatorIdEEE8allocateEm
Ltmp278:
	jmp	LBB60_13
LBB60_13:
	leaq	-264(%rbp), %rax
	movq	%rax, -136(%rbp)
	movq	-264(%rbp), %rsi
	movq	%rax, -144(%rbp)
	movq	-264(%rbp), %rax
	movq	-256(%rbp), %rcx
	leaq	(%rax,%rcx,8), %rdx
Ltmp279:
	movq	-696(%rbp), %rdi        ## 8-byte Reload
	callq	__ZNSt3__16vectorIdNS_9allocatorIdEEE18__construct_at_endIPKdEENS_9enable_ifIXsr21__is_forward_iteratorIT_EE5valueEvE4typeES8_S8_
Ltmp280:
	jmp	LBB60_14
LBB60_14:
	jmp	LBB60_16
LBB60_15:
Ltmp281:
	movl	%edx, %ecx
	movq	%rax, -280(%rbp)
	movl	%ecx, -284(%rbp)
	movq	-696(%rbp), %rdi        ## 8-byte Reload
	callq	__ZNSt3__113__vector_baseIdNS_9allocatorIdEEED2Ev
	movq	-280(%rbp), %rax
	movl	-284(%rbp), %ecx
	movq	%rax, -704(%rbp)        ## 8-byte Spill
	movl	%ecx, -708(%rbp)        ## 4-byte Spill
	jmp	LBB60_21
LBB60_16:                               ## %_ZNSt3__16vectorIdNS_9allocatorIdEEEC1ESt16initializer_listIdE.exit5
	jmp	LBB60_17
LBB60_17:
	movq	__ZNSt3__16vectorIdNS_9allocatorIdEEED1Ev@GOTPCREL(%rip), %rax
	leaq	__ZZN3fid10FidFactory6BfieldERKdE1b(%rip), %rcx
	movq	___dso_handle@GOTPCREL(%rip), %rdx
	movq	%rax, %rdi
	movq	%rcx, %rsi
	callq	___cxa_atexit
	leaq	__ZGVZN3fid10FidFactory6BfieldERKdE1b(%rip), %rdi
	movl	%eax, -712(%rbp)        ## 4-byte Spill
	callq	___cxa_guard_release
LBB60_18:
	movq	__ZN3fid3sim7t_pulseE@GOTPCREL(%rip), %rax
	movq	-512(%rbp), %rcx
	movsd	(%rcx), %xmm0
	ucomisd	(%rax), %xmm0
	jb	LBB60_22
## BB#19:
	leaq	__ZZN3fid10FidFactory6BfieldERKdE1a(%rip), %rsi
	movq	-576(%rbp), %rdi        ## 8-byte Reload
	callq	__ZNSt3__16vectorIdNS_9allocatorIdEEEC1ERKS3_
	jmp	LBB60_28
LBB60_20:                               ## %.body
	leaq	__ZGVZN3fid10FidFactory6BfieldERKdE1a(%rip), %rdi
	movq	-640(%rbp), %rax        ## 8-byte Reload
	movq	%rax, -536(%rbp)
	movl	-644(%rbp), %ecx        ## 4-byte Reload
	movl	%ecx, -540(%rbp)
	callq	___cxa_guard_abort
	jmp	LBB60_30
LBB60_21:                               ## %.body3
	leaq	__ZGVZN3fid10FidFactory6BfieldERKdE1b(%rip), %rdi
	movq	-704(%rbp), %rax        ## 8-byte Reload
	movq	%rax, -536(%rbp)
	movl	-708(%rbp), %ecx        ## 4-byte Reload
	movl	%ecx, -540(%rbp)
	callq	___cxa_guard_abort
	jmp	LBB60_30
LBB60_22:
	movq	-512(%rbp), %rax
	movsd	(%rax), %xmm0
	movq	-584(%rbp), %rax        ## 8-byte Reload
	movsd	(%rax), %xmm1
	addsd	16(%rax), %xmm1
	ucomisd	%xmm0, %xmm1
	jb	LBB60_24
## BB#23:
	leaq	__ZZN3fid10FidFactory6BfieldERKdE1b(%rip), %rax
	movsd	LCPI60_0(%rip), %xmm0
	movq	__ZN3fid3sim11freq_larmorE@GOTPCREL(%rip), %rcx
	leaq	__ZZN3fid10FidFactory6BfieldERKdE1a(%rip), %rdx
	movaps	%xmm0, %xmm1
	mulsd	(%rcx), %xmm1
	movq	%rdx, -120(%rbp)
	movq	$2, -128(%rbp)
	movq	-120(%rbp), %rdx
	movq	-128(%rbp), %rsi
	movq	(%rdx), %rdx
	movsd	%xmm1, (%rdx,%rsi,8)
	mulsd	(%rcx), %xmm0
	movq	%rax, -104(%rbp)
	movq	$2, -112(%rbp)
	movq	-104(%rbp), %rax
	movq	-112(%rbp), %rcx
	movq	(%rax), %rax
	movsd	%xmm0, (%rax,%rcx,8)
LBB60_24:
	jmp	LBB60_25
LBB60_25:
	xorps	%xmm0, %xmm0
	movq	-512(%rbp), %rax
	ucomisd	(%rax), %xmm0
	jbe	LBB60_27
## BB#26:
	leaq	__ZZN3fid10FidFactory6BfieldERKdE1a(%rip), %rsi
	movq	-576(%rbp), %rdi        ## 8-byte Reload
	callq	__ZNSt3__16vectorIdNS_9allocatorIdEEEC1ERKS3_
	jmp	LBB60_28
LBB60_27:
	leaq	__ZZN3fid10FidFactory6BfieldERKdE1b(%rip), %rax
	movsd	LCPI60_0(%rip), %xmm0
	movq	__ZN3fid3sim8freq_refE@GOTPCREL(%rip), %rcx
	movq	__ZN3fid3sim7omega_rE@GOTPCREL(%rip), %rdx
	movsd	(%rdx), %xmm1
	movaps	%xmm0, %xmm2
	mulsd	(%rcx), %xmm2
	movq	-512(%rbp), %rsi
	mulsd	(%rsi), %xmm2
	movsd	%xmm0, -720(%rbp)       ## 8-byte Spill
	movaps	%xmm2, %xmm0
	movq	%rax, -728(%rbp)        ## 8-byte Spill
	movsd	%xmm1, -736(%rbp)       ## 8-byte Spill
	movq	%rcx, -744(%rbp)        ## 8-byte Spill
	movq	%rdx, -752(%rbp)        ## 8-byte Spill
	callq	_cos
	movsd	-736(%rbp), %xmm1       ## 8-byte Reload
	mulsd	%xmm0, %xmm1
	movq	-728(%rbp), %rax        ## 8-byte Reload
	movq	%rax, -88(%rbp)
	movq	$0, -96(%rbp)
	movq	-88(%rbp), %rcx
	movq	-96(%rbp), %rdx
	movq	(%rcx), %rcx
	movsd	%xmm1, (%rcx,%rdx,8)
	movq	-752(%rbp), %rcx        ## 8-byte Reload
	movsd	(%rcx), %xmm0
	movsd	-720(%rbp), %xmm1       ## 8-byte Reload
	movq	-744(%rbp), %rdx        ## 8-byte Reload
	mulsd	(%rdx), %xmm1
	movq	-512(%rbp), %rsi
	mulsd	(%rsi), %xmm1
	movsd	%xmm0, -760(%rbp)       ## 8-byte Spill
	movaps	%xmm1, %xmm0
	callq	_sin
	movsd	-760(%rbp), %xmm1       ## 8-byte Reload
	mulsd	%xmm0, %xmm1
	movq	-728(%rbp), %rax        ## 8-byte Reload
	movq	%rax, -72(%rbp)
	movq	$1, -80(%rbp)
	movq	-72(%rbp), %rcx
	movq	-80(%rbp), %rdx
	movq	(%rcx), %rcx
	movsd	%xmm1, (%rcx,%rdx,8)
	movq	-576(%rbp), %rdi        ## 8-byte Reload
	movq	%rax, %rsi
	callq	__ZNSt3__16vectorIdNS_9allocatorIdEEEC1ERKS3_
LBB60_28:
	movq	___stack_chk_guard@GOTPCREL(%rip), %rax
	movq	(%rax), %rax
	cmpq	-16(%rbp), %rax
	jne	LBB60_31
## BB#29:                               ## %SP_return
	movq	-568(%rbp), %rax        ## 8-byte Reload
	addq	$760, %rsp              ## imm = 0x2F8
	popq	%rbx
	popq	%rbp
	retq
LBB60_30:
	movq	-536(%rbp), %rdi
	callq	__Unwind_Resume
LBB60_31:                               ## %CallStackCheckFailBlk
	callq	___stack_chk_fail
	.cfi_endproc
Leh_func_end60:
	.section	__TEXT,__gcc_except_tab
	.align	2
GCC_except_table60:
Lexception60:
	.byte	255                     ## @LPStart Encoding = omit
	.byte	155                     ## @TType Encoding = indirect pcrel sdata4
	.asciz	"\303\200"              ## @TType base offset
	.byte	3                       ## Call site Encoding = udata4
	.byte	65                      ## Call site table length
Lset78 = Leh_func_begin60-Leh_func_begin60 ## >> Call Site 1 <<
	.long	Lset78
Lset79 = Ltmp272-Leh_func_begin60       ##   Call between Leh_func_begin60 and Ltmp272
	.long	Lset79
	.long	0                       ##     has no landing pad
	.byte	0                       ##   On action: cleanup
Lset80 = Ltmp272-Leh_func_begin60       ## >> Call Site 2 <<
	.long	Lset80
Lset81 = Ltmp275-Ltmp272                ##   Call between Ltmp272 and Ltmp275
	.long	Lset81
Lset82 = Ltmp276-Leh_func_begin60       ##     jumps to Ltmp276
	.long	Lset82
	.byte	0                       ##   On action: cleanup
Lset83 = Ltmp275-Leh_func_begin60       ## >> Call Site 3 <<
	.long	Lset83
Lset84 = Ltmp277-Ltmp275                ##   Call between Ltmp275 and Ltmp277
	.long	Lset84
	.long	0                       ##     has no landing pad
	.byte	0                       ##   On action: cleanup
Lset85 = Ltmp277-Leh_func_begin60       ## >> Call Site 4 <<
	.long	Lset85
Lset86 = Ltmp280-Ltmp277                ##   Call between Ltmp277 and Ltmp280
	.long	Lset86
Lset87 = Ltmp281-Leh_func_begin60       ##     jumps to Ltmp281
	.long	Lset87
	.byte	0                       ##   On action: cleanup
Lset88 = Ltmp280-Leh_func_begin60       ## >> Call Site 5 <<
	.long	Lset88
Lset89 = Leh_func_end60-Ltmp280         ##   Call between Ltmp280 and Leh_func_end60
	.long	Lset89
	.long	0                       ##     has no landing pad
	.byte	0                       ##   On action: cleanup
	.align	2

	.section	__TEXT,__textcoal_nt,coalesced,pure_instructions
	.globl	__ZN3fid5crossIdEEvRKNSt3__16vectorIT_NS1_9allocatorIS3_EEEES8_RS6_
	.weak_def_can_be_hidden	__ZN3fid5crossIdEEvRKNSt3__16vectorIT_NS1_9allocatorIS3_EEEES8_RS6_
	.align	4, 0x90
__ZN3fid5crossIdEEvRKNSt3__16vectorIT_NS1_9allocatorIS3_EEEES8_RS6_: ## @_ZN3fid5crossIdEEvRKNSt3__16vectorIT_NS1_9allocatorIS3_EEEES8_RS6_
	.cfi_startproc
## BB#0:
	pushq	%rbp
Ltmp286:
	.cfi_def_cfa_offset 16
Ltmp287:
	.cfi_offset %rbp, -16
	movq	%rsp, %rbp
Ltmp288:
	.cfi_def_cfa_register %rbp
	subq	$136, %rsp
	movq	%rdi, -248(%rbp)
	movq	%rsi, -256(%rbp)
	movq	%rdx, -264(%rbp)
	movq	-248(%rbp), %rdx
	movq	%rdx, -232(%rbp)
	movq	$1, -240(%rbp)
	movq	-232(%rbp), %rdx
	movq	-240(%rbp), %rsi
	movq	(%rdx), %rdx
	movsd	(%rdx,%rsi,8), %xmm0
	movq	-256(%rbp), %rdx
	movq	%rdx, -8(%rbp)
	movq	$2, -16(%rbp)
	movq	-8(%rbp), %rdx
	movq	-16(%rbp), %rsi
	movq	(%rdx), %rdx
	mulsd	(%rdx,%rsi,8), %xmm0
	movq	-248(%rbp), %rdx
	movq	%rdx, -24(%rbp)
	movq	$2, -32(%rbp)
	movq	-24(%rbp), %rdx
	movq	-32(%rbp), %rsi
	movq	(%rdx), %rdx
	movsd	(%rdx,%rsi,8), %xmm1
	movq	-256(%rbp), %rdx
	movq	%rdx, -40(%rbp)
	movq	$1, -48(%rbp)
	movq	-40(%rbp), %rdx
	movq	-48(%rbp), %rsi
	movq	(%rdx), %rdx
	mulsd	(%rdx,%rsi,8), %xmm1
	subsd	%xmm1, %xmm0
	movq	-264(%rbp), %rdx
	movq	%rdx, -56(%rbp)
	movq	$0, -64(%rbp)
	movq	-56(%rbp), %rdx
	movq	-64(%rbp), %rsi
	movq	(%rdx), %rdx
	movsd	%xmm0, (%rdx,%rsi,8)
	movq	-248(%rbp), %rdx
	movq	%rdx, -72(%rbp)
	movq	$2, -80(%rbp)
	movq	-72(%rbp), %rdx
	movq	-80(%rbp), %rsi
	movq	(%rdx), %rdx
	movsd	(%rdx,%rsi,8), %xmm0
	movq	-256(%rbp), %rdx
	movq	%rdx, -88(%rbp)
	movq	$0, -96(%rbp)
	movq	-88(%rbp), %rdx
	movq	-96(%rbp), %rsi
	movq	(%rdx), %rdx
	mulsd	(%rdx,%rsi,8), %xmm0
	movq	-248(%rbp), %rdx
	movq	%rdx, -104(%rbp)
	movq	$0, -112(%rbp)
	movq	-104(%rbp), %rdx
	movq	-112(%rbp), %rsi
	movq	(%rdx), %rdx
	movsd	(%rdx,%rsi,8), %xmm1
	movq	-256(%rbp), %rdx
	movq	%rdx, -120(%rbp)
	movq	$2, -128(%rbp)
	movq	-120(%rbp), %rdx
	movq	-128(%rbp), %rsi
	movq	(%rdx), %rdx
	mulsd	(%rdx,%rsi,8), %xmm1
	subsd	%xmm1, %xmm0
	movq	-264(%rbp), %rdx
	movq	%rdx, -136(%rbp)
	movq	$1, -144(%rbp)
	movq	-136(%rbp), %rdx
	movq	-144(%rbp), %rsi
	movq	(%rdx), %rdx
	movsd	%xmm0, (%rdx,%rsi,8)
	movq	-248(%rbp), %rdx
	movq	%rdx, -152(%rbp)
	movq	$0, -160(%rbp)
	movq	-152(%rbp), %rdx
	movq	-160(%rbp), %rsi
	movq	(%rdx), %rdx
	movsd	(%rdx,%rsi,8), %xmm0
	movq	-256(%rbp), %rdx
	movq	%rdx, -168(%rbp)
	movq	$1, -176(%rbp)
	movq	-168(%rbp), %rdx
	movq	-176(%rbp), %rsi
	movq	(%rdx), %rdx
	mulsd	(%rdx,%rsi,8), %xmm0
	movq	-248(%rbp), %rdx
	movq	%rdx, -184(%rbp)
	movq	$1, -192(%rbp)
	movq	-184(%rbp), %rdx
	movq	-192(%rbp), %rsi
	movq	(%rdx), %rdx
	movsd	(%rdx,%rsi,8), %xmm1
	movq	-256(%rbp), %rdx
	movq	%rdx, -200(%rbp)
	movq	$0, -208(%rbp)
	movq	-200(%rbp), %rdx
	movq	-208(%rbp), %rsi
	movq	(%rdx), %rdx
	mulsd	(%rdx,%rsi,8), %xmm1
	subsd	%xmm1, %xmm0
	movq	-264(%rbp), %rdx
	movq	%rdx, -216(%rbp)
	movq	$2, -224(%rbp)
	movq	-216(%rbp), %rdx
	movq	-224(%rbp), %rsi
	movq	(%rdx), %rdx
	movsd	%xmm0, (%rdx,%rsi,8)
	addq	$136, %rsp
	popq	%rbp
	retq
	.cfi_endproc

	.globl	__ZN3fidmiIdEERNSt3__16vectorIT_NS1_9allocatorIS3_EEEES7_S7_
	.weak_def_can_be_hidden	__ZN3fidmiIdEERNSt3__16vectorIT_NS1_9allocatorIS3_EEEES7_S7_
	.align	4, 0x90
__ZN3fidmiIdEERNSt3__16vectorIT_NS1_9allocatorIS3_EEEES7_S7_: ## @_ZN3fidmiIdEERNSt3__16vectorIT_NS1_9allocatorIS3_EEEES7_S7_
	.cfi_startproc
## BB#0:
	pushq	%rbp
Ltmp289:
	.cfi_def_cfa_offset 16
Ltmp290:
	.cfi_offset %rbp, -16
	movq	%rsp, %rbp
Ltmp291:
	.cfi_def_cfa_register %rbp
	subq	$544, %rsp              ## imm = 0x220
	movq	%rdi, -480(%rbp)
	movq	%rsi, -488(%rbp)
	movq	-480(%rbp), %rsi
	movq	%rsi, -472(%rbp)
	movq	-472(%rbp), %rsi
	movq	8(%rsi), %rdi
	movq	(%rsi), %rsi
	subq	%rsi, %rdi
	sarq	$3, %rdi
	movq	-488(%rbp), %rsi
	movq	%rsi, -8(%rbp)
	movq	-8(%rbp), %rsi
	movq	8(%rsi), %rax
	movq	(%rsi), %rsi
	subq	%rsi, %rax
	sarq	$3, %rax
	cmpq	%rax, %rdi
	sete	%cl
	xorb	$1, %cl
	andb	$1, %cl
	movzbl	%cl, %edx
	movl	%edx, %eax
	cmpq	$0, %rax
	je	LBB62_2
## BB#1:
	leaq	L___func__._ZN3fidmiIdEERNSt3__16vectorIT_NS1_9allocatorIS3_EEEES7_S7_(%rip), %rdi
	leaq	L_.str45(%rip), %rsi
	movl	$50, %edx
	leaq	L_.str46(%rip), %rcx
	callq	___assert_rtn
LBB62_2:
	jmp	LBB62_3
LBB62_3:
	leaq	-264(%rbp), %rax
	leaq	-192(%rbp), %rcx
	leaq	-120(%rbp), %rdx
	leaq	-48(%rbp), %rsi
	movq	-480(%rbp), %rdi
	movq	%rdi, -80(%rbp)
	movq	-80(%rbp), %rdi
	movq	(%rdi), %r8
	movq	%rdi, -56(%rbp)
	movq	%r8, -64(%rbp)
	movq	-64(%rbp), %rdi
	movq	%rsi, -32(%rbp)
	movq	%rdi, -40(%rbp)
	movq	-32(%rbp), %rsi
	movq	-40(%rbp), %rdi
	movq	%rsi, -16(%rbp)
	movq	%rdi, -24(%rbp)
	movq	-16(%rbp), %rsi
	movq	-24(%rbp), %rdi
	movq	%rdi, (%rsi)
	movq	-48(%rbp), %rsi
	movq	%rsi, -72(%rbp)
	movq	-72(%rbp), %rsi
	movq	%rsi, -496(%rbp)
	movq	-480(%rbp), %rsi
	movq	%rsi, -152(%rbp)
	movq	-152(%rbp), %rsi
	movq	8(%rsi), %rdi
	movq	%rsi, -128(%rbp)
	movq	%rdi, -136(%rbp)
	movq	-136(%rbp), %rsi
	movq	%rdx, -104(%rbp)
	movq	%rsi, -112(%rbp)
	movq	-104(%rbp), %rdx
	movq	-112(%rbp), %rsi
	movq	%rdx, -88(%rbp)
	movq	%rsi, -96(%rbp)
	movq	-88(%rbp), %rdx
	movq	-96(%rbp), %rsi
	movq	%rsi, (%rdx)
	movq	-120(%rbp), %rdx
	movq	%rdx, -144(%rbp)
	movq	-144(%rbp), %rdx
	movq	%rdx, -504(%rbp)
	movq	-488(%rbp), %rdx
	movq	%rdx, -224(%rbp)
	movq	-224(%rbp), %rdx
	movq	(%rdx), %rsi
	movq	%rdx, -200(%rbp)
	movq	%rsi, -208(%rbp)
	movq	-208(%rbp), %rdx
	movq	%rcx, -176(%rbp)
	movq	%rdx, -184(%rbp)
	movq	-176(%rbp), %rcx
	movq	-184(%rbp), %rdx
	movq	%rcx, -160(%rbp)
	movq	%rdx, -168(%rbp)
	movq	-160(%rbp), %rcx
	movq	-168(%rbp), %rdx
	movq	%rdx, (%rcx)
	movq	-192(%rbp), %rcx
	movq	%rcx, -216(%rbp)
	movq	-216(%rbp), %rcx
	movq	%rcx, -512(%rbp)
	movq	-480(%rbp), %rcx
	movq	%rcx, -296(%rbp)
	movq	-296(%rbp), %rcx
	movq	(%rcx), %rdx
	movq	%rcx, -272(%rbp)
	movq	%rdx, -280(%rbp)
	movq	-280(%rbp), %rcx
	movq	%rax, -248(%rbp)
	movq	%rcx, -256(%rbp)
	movq	-248(%rbp), %rax
	movq	-256(%rbp), %rcx
	movq	%rax, -232(%rbp)
	movq	%rcx, -240(%rbp)
	movq	-232(%rbp), %rax
	movq	-240(%rbp), %rcx
	movq	%rcx, (%rax)
	movq	-264(%rbp), %rax
	movq	%rax, -288(%rbp)
	movq	-288(%rbp), %rax
	movq	%rax, -520(%rbp)
	movq	-496(%rbp), %rax
	movq	-504(%rbp), %rcx
	movq	-512(%rbp), %rdx
	movq	-520(%rbp), %rsi
	movq	%rax, -432(%rbp)
	movq	%rcx, -440(%rbp)
	movq	%rdx, -448(%rbp)
	movq	%rsi, -456(%rbp)
LBB62_4:                                ## =>This Inner Loop Header: Depth=1
	leaq	-440(%rbp), %rax
	leaq	-432(%rbp), %rcx
	movq	%rcx, -408(%rbp)
	movq	%rax, -416(%rbp)
	movq	-408(%rbp), %rax
	movq	-416(%rbp), %rcx
	movq	%rax, -392(%rbp)
	movq	%rcx, -400(%rbp)
	movq	-392(%rbp), %rax
	movq	%rax, -384(%rbp)
	movq	-384(%rbp), %rax
	movq	(%rax), %rax
	movq	-400(%rbp), %rcx
	movq	%rcx, -376(%rbp)
	movq	-376(%rbp), %rcx
	cmpq	(%rcx), %rax
	sete	%dl
	xorb	$1, %dl
	testb	$1, %dl
	jne	LBB62_5
	jmp	LBB62_6
LBB62_5:                                ##   in Loop: Header=BB62_4 Depth=1
	leaq	-456(%rbp), %rax
	leaq	-448(%rbp), %rcx
	leaq	-432(%rbp), %rdx
	leaq	-464(%rbp), %rsi
	movq	%rdx, -304(%rbp)
	movq	-304(%rbp), %rdi
	movq	(%rdi), %rdi
	movq	%rcx, -312(%rbp)
	movq	-312(%rbp), %r8
	movq	(%r8), %r8
	movq	%rsi, -320(%rbp)
	movq	%rdi, -328(%rbp)
	movq	%r8, -336(%rbp)
	movq	-328(%rbp), %rsi
	movsd	(%rsi), %xmm0
	movq	-336(%rbp), %rsi
	subsd	(%rsi), %xmm0
	movq	%rax, -344(%rbp)
	movq	-344(%rbp), %rsi
	movq	(%rsi), %rsi
	movsd	%xmm0, (%rsi)
	movq	%rdx, -352(%rbp)
	movq	-352(%rbp), %rdx
	movq	(%rdx), %rsi
	addq	$8, %rsi
	movq	%rsi, (%rdx)
	movq	%rcx, -360(%rbp)
	movq	-360(%rbp), %rcx
	movq	(%rcx), %rdx
	addq	$8, %rdx
	movq	%rdx, (%rcx)
	movq	%rax, -368(%rbp)
	movq	-368(%rbp), %rax
	movq	(%rax), %rcx
	addq	$8, %rcx
	movq	%rcx, (%rax)
	jmp	LBB62_4
LBB62_6:                                ## %_ZNSt3__19transformINS_11__wrap_iterIPdEES3_S3_NS_5minusIdEEEET1_T_S7_T0_S6_T2_.exit
	movq	-456(%rbp), %rax
	movq	%rax, -424(%rbp)
	movq	-424(%rbp), %rax
	movq	%rax, -536(%rbp)
	movq	-480(%rbp), %rax
	addq	$544, %rsp              ## imm = 0x220
	popq	%rbp
	retq
	.cfi_endproc

	.globl	__ZNSt3__16vectorIdNS_9allocatorIdEEEC1ERKS3_
	.weak_def_can_be_hidden	__ZNSt3__16vectorIdNS_9allocatorIdEEEC1ERKS3_
	.align	4, 0x90
__ZNSt3__16vectorIdNS_9allocatorIdEEEC1ERKS3_: ## @_ZNSt3__16vectorIdNS_9allocatorIdEEEC1ERKS3_
	.cfi_startproc
## BB#0:
	pushq	%rbp
Ltmp292:
	.cfi_def_cfa_offset 16
Ltmp293:
	.cfi_offset %rbp, -16
	movq	%rsp, %rbp
Ltmp294:
	.cfi_def_cfa_register %rbp
	subq	$16, %rsp
	movq	%rdi, -8(%rbp)
	movq	%rsi, -16(%rbp)
	movq	-8(%rbp), %rdi
	movq	-16(%rbp), %rsi
	callq	__ZNSt3__16vectorIdNS_9allocatorIdEEEC2ERKS3_
	addq	$16, %rsp
	popq	%rbp
	retq
	.cfi_endproc

	.section	__TEXT,__literal8,8byte_literals
	.align	3
LCPI64_0:
	.quad	4602678819172646912     ## double 0.5
LCPI64_1:
	.quad	4607182418800017408     ## double 1
LCPI64_2:
	.quad	4618441417868443648     ## double 6
	.section	__TEXT,__text,regular,pure_instructions
	.globl	__ZN3fid10FidFactory13LowPassFilterERNSt3__16vectorIdNS1_9allocatorIdEEEE
	.align	4, 0x90
__ZN3fid10FidFactory13LowPassFilterERNSt3__16vectorIdNS1_9allocatorIdEEEE: ## @_ZN3fid10FidFactory13LowPassFilterERNSt3__16vectorIdNS1_9allocatorIdEEEE
	.cfi_startproc
	.cfi_personality 155, ___gxx_personality_v0
Leh_func_begin64:
	.cfi_lsda 16, Lexception64
## BB#0:
	pushq	%rbp
Ltmp323:
	.cfi_def_cfa_offset 16
Ltmp324:
	.cfi_offset %rbp, -16
	movq	%rsp, %rbp
Ltmp325:
	.cfi_def_cfa_register %rbp
	subq	$1360, %rsp             ## imm = 0x550
	movq	%rdi, %rax
	leaq	-1192(%rbp), %rcx
	movsd	LCPI64_0(%rip), %xmm0
	movq	__ZN3fid3sim11freq_larmorE@GOTPCREL(%rip), %r8
	leaq	-1080(%rbp), %r9
	leaq	-1104(%rbp), %r10
	movq	___stack_chk_guard@GOTPCREL(%rip), %r11
	movq	(%r11), %r11
	movq	%r11, -8(%rbp)
	movq	%rsi, -1160(%rbp)
	movq	%rdx, -1168(%rbp)
	movq	-1160(%rbp), %rdx
	movq	%rcx, -1152(%rbp)
	movq	-1152(%rbp), %rsi
	movq	%rsi, -1144(%rbp)
	movq	-1144(%rbp), %rsi
	movq	%rsi, -1136(%rbp)
	movq	-1136(%rbp), %rsi
	movq	%rsi, %r11
	movq	%r11, -1128(%rbp)
	movq	$0, (%rsi)
	movq	$0, 8(%rsi)
	addq	$16, %rsi
	movq	%rsi, -1112(%rbp)
	movq	$0, -1120(%rbp)
	movq	-1112(%rbp), %rsi
	movq	-1120(%rbp), %r11
	movq	%rsi, -1096(%rbp)
	movq	%r11, -1104(%rbp)
	movq	-1096(%rbp), %rsi
	movq	%r10, -1088(%rbp)
	movq	-1088(%rbp), %r10
	movq	(%r10), %r10
	movq	%rsi, -1072(%rbp)
	movq	%r10, -1080(%rbp)
	movq	-1072(%rbp), %rsi
	movq	%rsi, %r10
	movq	%r10, -1064(%rbp)
	movq	%r9, -1056(%rbp)
	movq	-1056(%rbp), %r9
	movq	(%r9), %r9
	movq	%r9, (%rsi)
	mulsd	(%r8), %xmm0
	movsd	%xmm0, -1200(%rbp)
	movq	%rcx, -1048(%rbp)
	movq	-1048(%rbp), %rcx
	movq	8(%rcx), %rsi
	movq	(%rcx), %rcx
	subq	%rcx, %rsi
	sarq	$3, %rsi
	cmpq	$0, %rsi
	movq	%rax, -1248(%rbp)       ## 8-byte Spill
	movq	%rdi, -1256(%rbp)       ## 8-byte Spill
	movq	%rdx, -1264(%rbp)       ## 8-byte Spill
	jne	LBB64_10
## BB#1:
	movq	-1264(%rbp), %rax       ## 8-byte Reload
	movslq	28(%rax), %rsi
Ltmp295:
	leaq	-1192(%rbp), %rdi
	callq	__ZNSt3__16vectorIdNS_9allocatorIdEEE6resizeEm
Ltmp296:
	jmp	LBB64_2
LBB64_2:
	movl	$0, -1216(%rbp)
	movq	-1264(%rbp), %rax       ## 8-byte Reload
	movl	28(%rax), %ecx
	subl	$1, %ecx
	movl	%ecx, -1220(%rbp)
LBB64_3:                                ## =>This Inner Loop Header: Depth=1
	movl	$2, %eax
	movl	-1216(%rbp), %ecx
	movq	-1264(%rbp), %rdx       ## 8-byte Reload
	movl	28(%rdx), %esi
	movl	%eax, -1268(%rbp)       ## 4-byte Spill
	movl	%esi, %eax
	cltd
	movl	-1268(%rbp), %esi       ## 4-byte Reload
	idivl	%esi
	cmpl	%eax, %ecx
	jge	LBB64_9
## BB#4:                                ##   in Loop: Header=BB64_3 Depth=1
	leaq	-1192(%rbp), %rax
	movsd	LCPI64_1(%rip), %xmm0
	cvtsi2sdl	-1216(%rbp), %xmm1
	movq	-1264(%rbp), %rcx       ## 8-byte Reload
	movsd	16(%rcx), %xmm2
	cvtsi2sdl	28(%rcx), %xmm3
	mulsd	%xmm3, %xmm2
	mulsd	-1200(%rbp), %xmm2
	divsd	%xmm2, %xmm1
	movsd	LCPI64_2(%rip), %xmm2
	movsd	%xmm0, -1280(%rbp)      ## 8-byte Spill
	movaps	%xmm1, %xmm0
	movaps	%xmm2, %xmm1
	movq	%rax, -1288(%rbp)       ## 8-byte Spill
	callq	_pow
	movsd	%xmm0, -1232(%rbp)
	movsd	-1280(%rbp), %xmm0      ## 8-byte Reload
	addsd	-1232(%rbp), %xmm0
	movsd	-1280(%rbp), %xmm1      ## 8-byte Reload
	divsd	%xmm0, %xmm1
	movsd	LCPI64_0(%rip), %xmm0
	movsd	%xmm0, -1296(%rbp)      ## 8-byte Spill
	movaps	%xmm1, %xmm0
	movsd	-1296(%rbp), %xmm1      ## 8-byte Reload
	callq	_pow
	movslq	-1216(%rbp), %rax
	movq	-1288(%rbp), %rcx       ## 8-byte Reload
	movq	%rcx, -1032(%rbp)
	movq	%rax, -1040(%rbp)
	movq	-1032(%rbp), %rax
	movq	-1040(%rbp), %rdx
	movq	(%rax), %rax
	shlq	$3, %rdx
	addq	%rdx, %rax
	movsd	%xmm0, -1304(%rbp)      ## 8-byte Spill
	movq	%rax, -1312(%rbp)       ## 8-byte Spill
## BB#5:                                ##   in Loop: Header=BB64_3 Depth=1
	leaq	-1192(%rbp), %rax
	movq	-1312(%rbp), %rcx       ## 8-byte Reload
	movsd	-1304(%rbp), %xmm0      ## 8-byte Reload
	movsd	%xmm0, (%rcx)
	movl	-1216(%rbp), %edx
	movl	%edx, %esi
	addl	$1, %esi
	movl	%esi, -1216(%rbp)
	movslq	%edx, %rdi
	movq	%rax, -1016(%rbp)
	movq	%rdi, -1024(%rbp)
	movq	-1016(%rbp), %rax
	movq	-1024(%rbp), %rdi
	movq	(%rax), %rax
	shlq	$3, %rdi
	addq	%rdi, %rax
	movq	%rax, -1320(%rbp)       ## 8-byte Spill
## BB#6:                                ##   in Loop: Header=BB64_3 Depth=1
	leaq	-1192(%rbp), %rax
	movq	-1320(%rbp), %rcx       ## 8-byte Reload
	movsd	(%rcx), %xmm0
	movl	-1220(%rbp), %edx
	movl	%edx, %esi
	addl	$4294967295, %esi       ## imm = 0xFFFFFFFF
	movl	%esi, -1220(%rbp)
	movslq	%edx, %rdi
	movq	%rax, -1000(%rbp)
	movq	%rdi, -1008(%rbp)
	movq	-1000(%rbp), %rax
	movq	-1008(%rbp), %rdi
	movq	(%rax), %rax
	shlq	$3, %rdi
	addq	%rdi, %rax
	movsd	%xmm0, -1328(%rbp)      ## 8-byte Spill
	movq	%rax, -1336(%rbp)       ## 8-byte Spill
## BB#7:                                ##   in Loop: Header=BB64_3 Depth=1
	movq	-1336(%rbp), %rax       ## 8-byte Reload
	movsd	-1328(%rbp), %xmm0      ## 8-byte Reload
	movsd	%xmm0, (%rax)
	jmp	LBB64_3
LBB64_8:
Ltmp299:
	movl	%edx, %ecx
	movq	%rax, -1208(%rbp)
	movl	%ecx, -1212(%rbp)
	jmp	LBB64_34
LBB64_9:
	jmp	LBB64_10
LBB64_10:
	movq	-1168(%rbp), %rax
	movq	%rax, -984(%rbp)
	movq	$0, -992(%rbp)
	movq	-984(%rbp), %rax
	movq	-992(%rbp), %rcx
	movq	(%rax), %rax
	shlq	$3, %rcx
	addq	%rcx, %rax
	movq	%rax, -1344(%rbp)       ## 8-byte Spill
## BB#11:
	movq	-1168(%rbp), %rax
	movq	%rax, -976(%rbp)
	movq	(%rax), %rcx
	movq	8(%rax), %rax
	subq	%rcx, %rax
	shrq	$3, %rax
	movl	%eax, %edx
Ltmp297:
	leaq	-176(%rbp), %rdi
	xorl	%ecx, %ecx
	movl	$1, %r8d
	movq	-1344(%rbp), %rsi       ## 8-byte Reload
	callq	__ZN4arma3ColIdEC1EPdjbb
Ltmp298:
	jmp	LBB64_12
LBB64_12:
	leaq	-1192(%rbp), %rax
	movq	%rax, -944(%rbp)
	movq	$0, -952(%rbp)
	movq	-944(%rbp), %rax
	movq	-952(%rbp), %rcx
	movq	(%rax), %rax
	shlq	$3, %rcx
	addq	%rcx, %rax
	movq	%rax, -1352(%rbp)       ## 8-byte Spill
## BB#13:
	leaq	-1192(%rbp), %rax
	movq	%rax, -936(%rbp)
	movq	-1192(%rbp), %rax
	movq	-1184(%rbp), %rcx
	subq	%rax, %rcx
	shrq	$3, %rcx
	movl	%ecx, %edx
Ltmp300:
	leaq	-336(%rbp), %rdi
	xorl	%ecx, %ecx
	movl	$1, %r8d
	movq	-1352(%rbp), %rsi       ## 8-byte Reload
	callq	__ZN4arma3ColIdEC1EPdjbb
Ltmp301:
	jmp	LBB64_14
LBB64_14:
Ltmp303:
	leaq	-704(%rbp), %rdi
	leaq	-176(%rbp), %rsi
	callq	__ZN4arma3fftINS_3ColIdEEEENS_10enable_if2IXaasr12is_arma_typeIT_EE5valuesr7is_realINS4_9elem_typeEEE5valueEKNS_4mtOpINSt3__17complexINS4_8pod_typeEEES4_NS_11op_fft_realEEEE6resultERKS4_
Ltmp304:
	jmp	LBB64_15
LBB64_15:
Ltmp306:
	leaq	-624(%rbp), %rdi
	leaq	-704(%rbp), %rsi
	callq	__ZN4arma3ColINSt3__17complexIdEEEC1INS_4mtOpIS3_NS0_IdEENS_11op_fft_realEEEEERKNS_4BaseIS3_T_EE
Ltmp307:
	jmp	LBB64_16
LBB64_16:
	leaq	-704(%rbp), %rdi
	callq	__ZN4arma4mtOpINSt3__17complexIdEENS_3ColIdEENS_11op_fft_realEED1Ev
Ltmp309:
	leaq	-752(%rbp), %rdi
	leaq	-624(%rbp), %rsi
	leaq	-336(%rbp), %rdx
	callq	__ZN4armarmINS_3ColINSt3__17complexIdEEEENS1_IdEEEENS_10enable_if2IXaaaasr12is_arma_typeIT_EE5valuesr12is_arma_typeIT0_EE5valuesr12is_same_typeINS8_9elem_typeENS9_9elem_typeEEE2noEKNS_6mtGlueINS_12promote_typeISA_SB_E6resultES8_S9_NS_16glue_mixed_schurEEEE6resultERKS8_RKS9_
Ltmp310:
	jmp	LBB64_17
LBB64_17:
Ltmp311:
	leaq	-624(%rbp), %rdi
	leaq	-752(%rbp), %rsi
	callq	__ZN4arma3ColINSt3__17complexIdEEEaSINS_6mtGlueIS3_S4_NS0_IdEENS_16glue_mixed_schurEEEEERKS4_RKNS_4BaseIS3_T_EE
Ltmp312:
	movq	%rax, -1360(%rbp)       ## 8-byte Spill
	jmp	LBB64_18
LBB64_18:
	leaq	-752(%rbp), %rax
	movq	%rax, -928(%rbp)
	movq	%rax, -920(%rbp)
Ltmp314:
	leaq	-912(%rbp), %rdi
	leaq	-624(%rbp), %rsi
	callq	__ZN4arma4ifftINS_3ColINSt3__17complexIdEEEEEENS_10enable_if2IXaasr12is_arma_typeIT_EE5valuesr17is_complex_strictINS7_9elem_typeEEE5valueEKNS_2OpIS7_NS_10op_ifft_cxEEEE6resultERKS7_
Ltmp315:
	jmp	LBB64_19
LBB64_19:
Ltmp317:
	leaq	-832(%rbp), %rdi
	leaq	-912(%rbp), %rsi
	callq	__ZN4arma4realINS_2OpINS_3ColINSt3__17complexIdEEEENS_10op_ifft_cxEEEEENS_10enable_if2IXaasr12is_arma_typeIT_EE5valuesr5is_cxINSA_9elem_typeEEE3yesEKNS_4mtOpINSA_8pod_typeESA_NS_7op_realEEEE6resultERKSA_
Ltmp318:
	jmp	LBB64_20
LBB64_20:
Ltmp320:
	xorl	%eax, %eax
	movl	%eax, %edx
	leaq	-832(%rbp), %rsi
	movq	-1256(%rbp), %rdi       ## 8-byte Reload
	callq	__ZN4arma7conv_toINSt3__16vectorIdNS1_9allocatorIdEEEEE4fromIdNS_4mtOpIdNS_2OpINS_3ColINS1_7complexIdEEEENS_10op_ifft_cxEEENS_7op_realEEEEES5_RKNS_4BaseIT_T0_EEPKNS_11arma_not_cxISJ_E6resultE
Ltmp321:
	jmp	LBB64_21
LBB64_21:
	leaq	-832(%rbp), %rdi
	callq	__ZN4arma4mtOpIdNS_2OpINS_3ColINSt3__17complexIdEEEENS_10op_ifft_cxEEENS_7op_realEED1Ev
	leaq	-912(%rbp), %rdi
	callq	__ZN4arma2OpINS_3ColINSt3__17complexIdEEEENS_10op_ifft_cxEED1Ev
	leaq	-624(%rbp), %rdi
	movl	$1, -1236(%rbp)
	callq	__ZN4arma3ColINSt3__17complexIdEEED1Ev
	leaq	-336(%rbp), %rdi
	callq	__ZN4arma3ColIdED1Ev
	leaq	-176(%rbp), %rdi
	callq	__ZN4arma3ColIdED1Ev
	leaq	-1192(%rbp), %rdi
	callq	__ZNSt3__16vectorIdNS_9allocatorIdEEED1Ev
	movq	___stack_chk_guard@GOTPCREL(%rip), %rdi
	movq	(%rdi), %rdi
	cmpq	-8(%rbp), %rdi
	jne	LBB64_36
## BB#22:                               ## %SP_return
	movq	-1248(%rbp), %rax       ## 8-byte Reload
	addq	$1360, %rsp             ## imm = 0x550
	popq	%rbp
	retq
LBB64_23:
Ltmp302:
	movl	%edx, %ecx
	movq	%rax, -1208(%rbp)
	movl	%ecx, -1212(%rbp)
	jmp	LBB64_33
LBB64_24:
Ltmp305:
	movl	%edx, %ecx
	movq	%rax, -1208(%rbp)
	movl	%ecx, -1212(%rbp)
	jmp	LBB64_32
LBB64_25:
Ltmp308:
	leaq	-704(%rbp), %rdi
	movl	%edx, %ecx
	movq	%rax, -1208(%rbp)
	movl	%ecx, -1212(%rbp)
	callq	__ZN4arma4mtOpINSt3__17complexIdEENS_3ColIdEENS_11op_fft_realEED1Ev
	jmp	LBB64_32
LBB64_26:
Ltmp316:
	movl	%edx, %ecx
	movq	%rax, -1208(%rbp)
	movl	%ecx, -1212(%rbp)
	jmp	LBB64_31
LBB64_27:
Ltmp313:
	leaq	-752(%rbp), %rcx
	movl	%edx, %esi
	movq	%rax, -1208(%rbp)
	movl	%esi, -1212(%rbp)
	movq	%rcx, -968(%rbp)
	movq	-968(%rbp), %rax
	movq	%rax, -960(%rbp)
	jmp	LBB64_31
LBB64_28:
Ltmp319:
	movl	%edx, %ecx
	movq	%rax, -1208(%rbp)
	movl	%ecx, -1212(%rbp)
	jmp	LBB64_30
LBB64_29:
Ltmp322:
	leaq	-832(%rbp), %rdi
	movl	%edx, %ecx
	movq	%rax, -1208(%rbp)
	movl	%ecx, -1212(%rbp)
	callq	__ZN4arma4mtOpIdNS_2OpINS_3ColINSt3__17complexIdEEEENS_10op_ifft_cxEEENS_7op_realEED1Ev
LBB64_30:
	leaq	-912(%rbp), %rdi
	callq	__ZN4arma2OpINS_3ColINSt3__17complexIdEEEENS_10op_ifft_cxEED1Ev
LBB64_31:
	leaq	-624(%rbp), %rdi
	callq	__ZN4arma3ColINSt3__17complexIdEEED1Ev
LBB64_32:
	leaq	-336(%rbp), %rdi
	callq	__ZN4arma3ColIdED1Ev
LBB64_33:
	leaq	-176(%rbp), %rdi
	callq	__ZN4arma3ColIdED1Ev
LBB64_34:
	leaq	-1192(%rbp), %rdi
	callq	__ZNSt3__16vectorIdNS_9allocatorIdEEED1Ev
## BB#35:
	movq	-1208(%rbp), %rdi
	callq	__Unwind_Resume
LBB64_36:                               ## %CallStackCheckFailBlk
	callq	___stack_chk_fail
	.cfi_endproc
Leh_func_end64:
	.section	__TEXT,__gcc_except_tab
	.align	2
GCC_except_table64:
Lexception64:
	.byte	255                     ## @LPStart Encoding = omit
	.byte	155                     ## @TType Encoding = indirect pcrel sdata4
	.asciz	"\237\201"              ## @TType base offset
	.byte	3                       ## Call site Encoding = udata4
	.ascii	"\234\001"              ## Call site table length
Lset90 = Ltmp295-Leh_func_begin64       ## >> Call Site 1 <<
	.long	Lset90
Lset91 = Ltmp296-Ltmp295                ##   Call between Ltmp295 and Ltmp296
	.long	Lset91
Lset92 = Ltmp299-Leh_func_begin64       ##     jumps to Ltmp299
	.long	Lset92
	.byte	0                       ##   On action: cleanup
Lset93 = Ltmp296-Leh_func_begin64       ## >> Call Site 2 <<
	.long	Lset93
Lset94 = Ltmp297-Ltmp296                ##   Call between Ltmp296 and Ltmp297
	.long	Lset94
	.long	0                       ##     has no landing pad
	.byte	0                       ##   On action: cleanup
Lset95 = Ltmp297-Leh_func_begin64       ## >> Call Site 3 <<
	.long	Lset95
Lset96 = Ltmp298-Ltmp297                ##   Call between Ltmp297 and Ltmp298
	.long	Lset96
Lset97 = Ltmp299-Leh_func_begin64       ##     jumps to Ltmp299
	.long	Lset97
	.byte	0                       ##   On action: cleanup
Lset98 = Ltmp300-Leh_func_begin64       ## >> Call Site 4 <<
	.long	Lset98
Lset99 = Ltmp301-Ltmp300                ##   Call between Ltmp300 and Ltmp301
	.long	Lset99
Lset100 = Ltmp302-Leh_func_begin64      ##     jumps to Ltmp302
	.long	Lset100
	.byte	0                       ##   On action: cleanup
Lset101 = Ltmp303-Leh_func_begin64      ## >> Call Site 5 <<
	.long	Lset101
Lset102 = Ltmp304-Ltmp303               ##   Call between Ltmp303 and Ltmp304
	.long	Lset102
Lset103 = Ltmp305-Leh_func_begin64      ##     jumps to Ltmp305
	.long	Lset103
	.byte	0                       ##   On action: cleanup
Lset104 = Ltmp306-Leh_func_begin64      ## >> Call Site 6 <<
	.long	Lset104
Lset105 = Ltmp307-Ltmp306               ##   Call between Ltmp306 and Ltmp307
	.long	Lset105
Lset106 = Ltmp308-Leh_func_begin64      ##     jumps to Ltmp308
	.long	Lset106
	.byte	0                       ##   On action: cleanup
Lset107 = Ltmp309-Leh_func_begin64      ## >> Call Site 7 <<
	.long	Lset107
Lset108 = Ltmp310-Ltmp309               ##   Call between Ltmp309 and Ltmp310
	.long	Lset108
Lset109 = Ltmp316-Leh_func_begin64      ##     jumps to Ltmp316
	.long	Lset109
	.byte	0                       ##   On action: cleanup
Lset110 = Ltmp311-Leh_func_begin64      ## >> Call Site 8 <<
	.long	Lset110
Lset111 = Ltmp312-Ltmp311               ##   Call between Ltmp311 and Ltmp312
	.long	Lset111
Lset112 = Ltmp313-Leh_func_begin64      ##     jumps to Ltmp313
	.long	Lset112
	.byte	0                       ##   On action: cleanup
Lset113 = Ltmp314-Leh_func_begin64      ## >> Call Site 9 <<
	.long	Lset113
Lset114 = Ltmp315-Ltmp314               ##   Call between Ltmp314 and Ltmp315
	.long	Lset114
Lset115 = Ltmp316-Leh_func_begin64      ##     jumps to Ltmp316
	.long	Lset115
	.byte	0                       ##   On action: cleanup
Lset116 = Ltmp317-Leh_func_begin64      ## >> Call Site 10 <<
	.long	Lset116
Lset117 = Ltmp318-Ltmp317               ##   Call between Ltmp317 and Ltmp318
	.long	Lset117
Lset118 = Ltmp319-Leh_func_begin64      ##     jumps to Ltmp319
	.long	Lset118
	.byte	0                       ##   On action: cleanup
Lset119 = Ltmp320-Leh_func_begin64      ## >> Call Site 11 <<
	.long	Lset119
Lset120 = Ltmp321-Ltmp320               ##   Call between Ltmp320 and Ltmp321
	.long	Lset120
Lset121 = Ltmp322-Leh_func_begin64      ##     jumps to Ltmp322
	.long	Lset121
	.byte	0                       ##   On action: cleanup
Lset122 = Ltmp321-Leh_func_begin64      ## >> Call Site 12 <<
	.long	Lset122
Lset123 = Leh_func_end64-Ltmp321        ##   Call between Ltmp321 and Leh_func_end64
	.long	Lset123
	.long	0                       ##     has no landing pad
	.byte	0                       ##   On action: cleanup
	.align	2

	.section	__TEXT,__textcoal_nt,coalesced,pure_instructions
	.globl	__ZN4arma3ColIdEC1EPdjbb
	.weak_def_can_be_hidden	__ZN4arma3ColIdEC1EPdjbb
	.align	4, 0x90
__ZN4arma3ColIdEC1EPdjbb:               ## @_ZN4arma3ColIdEC1EPdjbb
	.cfi_startproc
## BB#0:
	pushq	%rbp
Ltmp326:
	.cfi_def_cfa_offset 16
Ltmp327:
	.cfi_offset %rbp, -16
	movq	%rsp, %rbp
Ltmp328:
	.cfi_def_cfa_register %rbp
	subq	$32, %rsp
	movb	%r8b, %al
	movb	%cl, %r9b
	movq	%rdi, -8(%rbp)
	movq	%rsi, -16(%rbp)
	movl	%edx, -20(%rbp)
	andb	$1, %r9b
	movb	%r9b, -21(%rbp)
	andb	$1, %al
	movb	%al, -22(%rbp)
	movq	-8(%rbp), %rdi
	movq	-16(%rbp), %rsi
	movl	-20(%rbp), %edx
	movb	-21(%rbp), %al
	movb	-22(%rbp), %r9b
	andb	$1, %al
	andb	$1, %r9b
	movzbl	%al, %ecx
	movzbl	%r9b, %r8d
	callq	__ZN4arma3ColIdEC2EPdjbb
	addq	$32, %rsp
	popq	%rbp
	retq
	.cfi_endproc

	.globl	__ZN4arma3fftINS_3ColIdEEEENS_10enable_if2IXaasr12is_arma_typeIT_EE5valuesr7is_realINS4_9elem_typeEEE5valueEKNS_4mtOpINSt3__17complexINS4_8pod_typeEEES4_NS_11op_fft_realEEEE6resultERKS4_
	.weak_def_can_be_hidden	__ZN4arma3fftINS_3ColIdEEEENS_10enable_if2IXaasr12is_arma_typeIT_EE5valuesr7is_realINS4_9elem_typeEEE5valueEKNS_4mtOpINSt3__17complexINS4_8pod_typeEEES4_NS_11op_fft_realEEEE6resultERKS4_
	.align	4, 0x90
__ZN4arma3fftINS_3ColIdEEEENS_10enable_if2IXaasr12is_arma_typeIT_EE5valuesr7is_realINS4_9elem_typeEEE5valueEKNS_4mtOpINSt3__17complexINS4_8pod_typeEEES4_NS_11op_fft_realEEEE6resultERKS4_: ## @_ZN4arma3fftINS_3ColIdEEEENS_10enable_if2IXaasr12is_arma_typeIT_EE5valuesr7is_realINS4_9elem_typeEEE5valueEKNS_4mtOpINSt3__17complexINS4_8pod_typeEEES4_NS_11op_fft_realEEEE6resultERKS4_
	.cfi_startproc
## BB#0:
	pushq	%rbp
Ltmp329:
	.cfi_def_cfa_offset 16
Ltmp330:
	.cfi_offset %rbp, -16
	movq	%rsp, %rbp
Ltmp331:
	.cfi_def_cfa_register %rbp
	subq	$16, %rsp
	movq	%rdi, %rax
	xorl	%edx, %edx
	movl	$1, %ecx
	movq	%rsi, -8(%rbp)
	movq	-8(%rbp), %rsi
	movq	%rax, -16(%rbp)         ## 8-byte Spill
	callq	__ZN4arma4mtOpINSt3__17complexIdEENS_3ColIdEENS_11op_fft_realEEC1ERKS5_jj
	movq	-16(%rbp), %rax         ## 8-byte Reload
	addq	$16, %rsp
	popq	%rbp
	retq
	.cfi_endproc

	.globl	__ZN4arma3ColINSt3__17complexIdEEEC1INS_4mtOpIS3_NS0_IdEENS_11op_fft_realEEEEERKNS_4BaseIS3_T_EE
	.weak_def_can_be_hidden	__ZN4arma3ColINSt3__17complexIdEEEC1INS_4mtOpIS3_NS0_IdEENS_11op_fft_realEEEEERKNS_4BaseIS3_T_EE
	.align	4, 0x90
__ZN4arma3ColINSt3__17complexIdEEEC1INS_4mtOpIS3_NS0_IdEENS_11op_fft_realEEEEERKNS_4BaseIS3_T_EE: ## @_ZN4arma3ColINSt3__17complexIdEEEC1INS_4mtOpIS3_NS0_IdEENS_11op_fft_realEEEEERKNS_4BaseIS3_T_EE
	.cfi_startproc
## BB#0:
	pushq	%rbp
Ltmp332:
	.cfi_def_cfa_offset 16
Ltmp333:
	.cfi_offset %rbp, -16
	movq	%rsp, %rbp
Ltmp334:
	.cfi_def_cfa_register %rbp
	subq	$16, %rsp
	movq	%rdi, -8(%rbp)
	movq	%rsi, -16(%rbp)
	movq	-8(%rbp), %rdi
	movq	-16(%rbp), %rsi
	callq	__ZN4arma3ColINSt3__17complexIdEEEC2INS_4mtOpIS3_NS0_IdEENS_11op_fft_realEEEEERKNS_4BaseIS3_T_EE
	addq	$16, %rsp
	popq	%rbp
	retq
	.cfi_endproc

	.globl	__ZN4arma4mtOpINSt3__17complexIdEENS_3ColIdEENS_11op_fft_realEED1Ev
	.weak_def_can_be_hidden	__ZN4arma4mtOpINSt3__17complexIdEENS_3ColIdEENS_11op_fft_realEED1Ev
	.align	4, 0x90
__ZN4arma4mtOpINSt3__17complexIdEENS_3ColIdEENS_11op_fft_realEED1Ev: ## @_ZN4arma4mtOpINSt3__17complexIdEENS_3ColIdEENS_11op_fft_realEED1Ev
	.cfi_startproc
## BB#0:
	pushq	%rbp
Ltmp335:
	.cfi_def_cfa_offset 16
Ltmp336:
	.cfi_offset %rbp, -16
	movq	%rsp, %rbp
Ltmp337:
	.cfi_def_cfa_register %rbp
	subq	$16, %rsp
	movq	%rdi, -8(%rbp)
	movq	-8(%rbp), %rdi
	callq	__ZN4arma4mtOpINSt3__17complexIdEENS_3ColIdEENS_11op_fft_realEED2Ev
	addq	$16, %rsp
	popq	%rbp
	retq
	.cfi_endproc

	.globl	__ZN4arma3ColINSt3__17complexIdEEEaSINS_6mtGlueIS3_S4_NS0_IdEENS_16glue_mixed_schurEEEEERKS4_RKNS_4BaseIS3_T_EE
	.weak_def_can_be_hidden	__ZN4arma3ColINSt3__17complexIdEEEaSINS_6mtGlueIS3_S4_NS0_IdEENS_16glue_mixed_schurEEEEERKS4_RKNS_4BaseIS3_T_EE
	.align	4, 0x90
__ZN4arma3ColINSt3__17complexIdEEEaSINS_6mtGlueIS3_S4_NS0_IdEENS_16glue_mixed_schurEEEEERKS4_RKNS_4BaseIS3_T_EE: ## @_ZN4arma3ColINSt3__17complexIdEEEaSINS_6mtGlueIS3_S4_NS0_IdEENS_16glue_mixed_schurEEEEERKS4_RKNS_4BaseIS3_T_EE
	.cfi_startproc
## BB#0:
	pushq	%rbp
Ltmp338:
	.cfi_def_cfa_offset 16
Ltmp339:
	.cfi_offset %rbp, -16
	movq	%rsp, %rbp
Ltmp340:
	.cfi_def_cfa_register %rbp
	subq	$48, %rsp
	movq	%rdi, -16(%rbp)
	movq	%rsi, -24(%rbp)
	movq	-16(%rbp), %rsi
	movq	%rsi, %rdi
	movq	-24(%rbp), %rax
	movq	%rax, -8(%rbp)
	movq	-8(%rbp), %rax
	movq	%rsi, -32(%rbp)         ## 8-byte Spill
	movq	%rax, %rsi
	callq	__ZN4arma3MatINSt3__17complexIdEEEaSINS_3ColIS3_EENS6_IdEENS_16glue_mixed_schurEEERKS4_RKNS_6mtGlueIS3_T_T0_T1_EE
	movq	-32(%rbp), %rsi         ## 8-byte Reload
	movq	%rax, -40(%rbp)         ## 8-byte Spill
	movq	%rsi, %rax
	addq	$48, %rsp
	popq	%rbp
	retq
	.cfi_endproc

	.globl	__ZN4armarmINS_3ColINSt3__17complexIdEEEENS1_IdEEEENS_10enable_if2IXaaaasr12is_arma_typeIT_EE5valuesr12is_arma_typeIT0_EE5valuesr12is_same_typeINS8_9elem_typeENS9_9elem_typeEEE2noEKNS_6mtGlueINS_12promote_typeISA_SB_E6resultES8_S9_NS_16glue_mixed_schurEEEE6resultERKS8_RKS9_
	.weak_def_can_be_hidden	__ZN4armarmINS_3ColINSt3__17complexIdEEEENS1_IdEEEENS_10enable_if2IXaaaasr12is_arma_typeIT_EE5valuesr12is_arma_typeIT0_EE5valuesr12is_same_typeINS8_9elem_typeENS9_9elem_typeEEE2noEKNS_6mtGlueINS_12promote_typeISA_SB_E6resultES8_S9_NS_16glue_mixed_schurEEEE6resultERKS8_RKS9_
	.align	4, 0x90
__ZN4armarmINS_3ColINSt3__17complexIdEEEENS1_IdEEEENS_10enable_if2IXaaaasr12is_arma_typeIT_EE5valuesr12is_arma_typeIT0_EE5valuesr12is_same_typeINS8_9elem_typeENS9_9elem_typeEEE2noEKNS_6mtGlueINS_12promote_typeISA_SB_E6resultES8_S9_NS_16glue_mixed_schurEEEE6resultERKS8_RKS9_: ## @_ZN4armarmINS_3ColINSt3__17complexIdEEEENS1_IdEEEENS_10enable_if2IXaaaasr12is_arma_typeIT_EE5valuesr12is_arma_typeIT0_EE5valuesr12is_same_typeINS8_9elem_typeENS9_9elem_typeEEE2noEKNS_6mtGlueINS_12promote_typeISA_SB_E6resultES8_S9_NS_16glue_mixed_schurEEEE6resultERKS8_RKS9_
	.cfi_startproc
## BB#0:
	pushq	%rbp
Ltmp341:
	.cfi_def_cfa_offset 16
Ltmp342:
	.cfi_offset %rbp, -16
	movq	%rsp, %rbp
Ltmp343:
	.cfi_def_cfa_register %rbp
	subq	$80, %rsp
	movq	%rdi, %rax
	movq	%rsi, -56(%rbp)
	movq	%rdx, -64(%rbp)
	movq	%rax, -72(%rbp)         ## 8-byte Spill
	movq	%rdi, -80(%rbp)         ## 8-byte Spill
	callq	__ZN4arma12promote_typeINSt3__17complexIdEEdE5checkEv
	movq	-56(%rbp), %rax
	movq	-64(%rbp), %rdx
	movq	-80(%rbp), %rsi         ## 8-byte Reload
	movq	%rsi, -32(%rbp)
	movq	%rax, -40(%rbp)
	movq	%rdx, -48(%rbp)
	movq	-32(%rbp), %rax
	movq	-40(%rbp), %rdx
	movq	-48(%rbp), %rdi
	movq	%rax, -8(%rbp)
	movq	%rdx, -16(%rbp)
	movq	%rdi, -24(%rbp)
	movq	-8(%rbp), %rax
	movq	-16(%rbp), %rdx
	movq	%rdx, (%rax)
	movq	-24(%rbp), %rdx
	movq	%rdx, 16(%rax)
	movq	-72(%rbp), %rax         ## 8-byte Reload
	addq	$80, %rsp
	popq	%rbp
	retq
	.cfi_endproc

	.globl	__ZN4arma7conv_toINSt3__16vectorIdNS1_9allocatorIdEEEEE4fromIdNS_4mtOpIdNS_2OpINS_3ColINS1_7complexIdEEEENS_10op_ifft_cxEEENS_7op_realEEEEES5_RKNS_4BaseIT_T0_EEPKNS_11arma_not_cxISJ_E6resultE
	.weak_def_can_be_hidden	__ZN4arma7conv_toINSt3__16vectorIdNS1_9allocatorIdEEEEE4fromIdNS_4mtOpIdNS_2OpINS_3ColINS1_7complexIdEEEENS_10op_ifft_cxEEENS_7op_realEEEEES5_RKNS_4BaseIT_T0_EEPKNS_11arma_not_cxISJ_E6resultE
	.align	4, 0x90
__ZN4arma7conv_toINSt3__16vectorIdNS1_9allocatorIdEEEEE4fromIdNS_4mtOpIdNS_2OpINS_3ColINS1_7complexIdEEEENS_10op_ifft_cxEEENS_7op_realEEEEES5_RKNS_4BaseIT_T0_EEPKNS_11arma_not_cxISJ_E6resultE: ## @_ZN4arma7conv_toINSt3__16vectorIdNS1_9allocatorIdEEEEE4fromIdNS_4mtOpIdNS_2OpINS_3ColINS1_7complexIdEEEENS_10op_ifft_cxEEENS_7op_realEEEEES5_RKNS_4BaseIT_T0_EEPKNS_11arma_not_cxISJ_E6resultE
	.cfi_startproc
	.cfi_personality 155, ___gxx_personality_v0
Leh_func_begin71:
	.cfi_lsda 16, Lexception71
## BB#0:
	pushq	%rbp
Ltmp352:
	.cfi_def_cfa_offset 16
Ltmp353:
	.cfi_offset %rbp, -16
	movq	%rsp, %rbp
Ltmp354:
	.cfi_def_cfa_register %rbp
	subq	$320, %rsp              ## imm = 0x140
	movq	%rdi, %rax
	leaq	-176(%rbp), %rcx
	movq	___stack_chk_guard@GOTPCREL(%rip), %r8
	movq	(%r8), %r8
	movq	%r8, -8(%rbp)
	movq	%rsi, -232(%rbp)
	movq	%rdx, -240(%rbp)
	movq	-232(%rbp), %rdx
	movq	%rdx, -224(%rbp)
	movq	-224(%rbp), %rdx
	movq	%rdi, -280(%rbp)        ## 8-byte Spill
	movq	%rcx, %rdi
	movq	%rdx, %rsi
	movq	%rax, -288(%rbp)        ## 8-byte Spill
	callq	__ZN4arma12quasi_unwrapINS_4mtOpIdNS_2OpINS_3ColINSt3__17complexIdEEEENS_10op_ifft_cxEEENS_7op_realEEEEC1ERKSB_
	movb	$1, %r9b
	leaq	-176(%rbp), %rax
	movq	%rax, -248(%rbp)
	movq	-248(%rbp), %rax
	movq	%rax, -216(%rbp)
	movq	-216(%rbp), %rax
	cmpl	$1, (%rax)
	movq	%rax, -296(%rbp)        ## 8-byte Spill
	movb	%r9b, -297(%rbp)        ## 1-byte Spill
	je	LBB71_2
## BB#1:
	movq	-296(%rbp), %rax        ## 8-byte Reload
	cmpl	$1, 4(%rax)
	sete	%cl
	movb	%cl, -297(%rbp)         ## 1-byte Spill
LBB71_2:                                ## %_ZNK4arma3MatIdE6is_vecEv.exit
	movb	-297(%rbp), %al         ## 1-byte Reload
	movb	%al, -298(%rbp)         ## 1-byte Spill
## BB#3:
	xorl	%eax, %eax
	movb	%al, %cl
	movb	-298(%rbp), %dl         ## 1-byte Reload
	andb	$1, %dl
	movzbl	%dl, %eax
	cmpl	$0, %eax
	movb	%cl, -299(%rbp)         ## 1-byte Spill
	jne	LBB71_6
## BB#4:
	movq	-248(%rbp), %rax
	movq	%rax, -208(%rbp)
	movq	-208(%rbp), %rax
	cmpl	$0, 8(%rax)
	sete	%cl
	movb	%cl, -300(%rbp)         ## 1-byte Spill
## BB#5:
	movb	-300(%rbp), %al         ## 1-byte Reload
	andb	$1, %al
	movzbl	%al, %ecx
	cmpl	$0, %ecx
	sete	%al
	movb	%al, -299(%rbp)         ## 1-byte Spill
LBB71_6:
Ltmp344:
	movb	-299(%rbp), %al         ## 1-byte Reload
	movzbl	%al, %ecx
	andl	$1, %ecx
	leaq	L_.str32(%rip), %rsi
	movl	%ecx, %edi
	callq	__ZN4arma10arma_checkIA57_cEEvbRKT_
Ltmp345:
	jmp	LBB71_7
LBB71_7:
	movq	-248(%rbp), %rax
	movl	8(%rax), %ecx
	movl	%ecx, -264(%rbp)
	movb	$0, -265(%rbp)
	movl	-264(%rbp), %ecx
	movl	%ecx, %esi
Ltmp346:
	movq	-280(%rbp), %rdi        ## 8-byte Reload
	callq	__ZNSt3__16vectorIdNS_9allocatorIdEEEC1Em
Ltmp347:
	jmp	LBB71_8
LBB71_8:
	cmpl	$0, -264(%rbp)
	jbe	LBB71_15
## BB#9:
	movq	-280(%rbp), %rax        ## 8-byte Reload
	movq	%rax, -192(%rbp)
	movq	$0, -200(%rbp)
	movq	-192(%rbp), %rcx
	movq	-200(%rbp), %rdx
	movq	(%rcx), %rcx
	shlq	$3, %rdx
	addq	%rdx, %rcx
	movq	%rcx, -312(%rbp)        ## 8-byte Spill
## BB#10:
	movq	-248(%rbp), %rax
	movq	%rax, -184(%rbp)
	movq	-184(%rbp), %rax
	movq	16(%rax), %rsi
	movq	%rsi, -320(%rbp)        ## 8-byte Spill
## BB#11:
	movl	-264(%rbp), %edx
Ltmp349:
	movq	-312(%rbp), %rdi        ## 8-byte Reload
	movq	-320(%rbp), %rsi        ## 8-byte Reload
	callq	__ZN4arma8arrayops7convertIddEEvPT_PKT0_j
Ltmp350:
	jmp	LBB71_12
LBB71_12:
	jmp	LBB71_15
LBB71_13:
Ltmp348:
	movl	%edx, %ecx
	movq	%rax, -256(%rbp)
	movl	%ecx, -260(%rbp)
	jmp	LBB71_19
LBB71_14:
Ltmp351:
	movl	%edx, %ecx
	movq	%rax, -256(%rbp)
	movl	%ecx, -260(%rbp)
	movq	-280(%rbp), %rdi        ## 8-byte Reload
	callq	__ZNSt3__16vectorIdNS_9allocatorIdEEED1Ev
	jmp	LBB71_19
LBB71_15:
	movb	$1, -265(%rbp)
	movl	$1, -272(%rbp)
	testb	$1, -265(%rbp)
	jne	LBB71_17
## BB#16:
	movq	-280(%rbp), %rdi        ## 8-byte Reload
	callq	__ZNSt3__16vectorIdNS_9allocatorIdEEED1Ev
LBB71_17:
	leaq	-176(%rbp), %rdi
	callq	__ZN4arma12quasi_unwrapINS_4mtOpIdNS_2OpINS_3ColINSt3__17complexIdEEEENS_10op_ifft_cxEEENS_7op_realEEEED1Ev
	movq	___stack_chk_guard@GOTPCREL(%rip), %rdi
	movq	(%rdi), %rdi
	cmpq	-8(%rbp), %rdi
	jne	LBB71_21
## BB#18:                               ## %SP_return
	movq	-288(%rbp), %rax        ## 8-byte Reload
	addq	$320, %rsp              ## imm = 0x140
	popq	%rbp
	retq
LBB71_19:
	leaq	-176(%rbp), %rdi
	callq	__ZN4arma12quasi_unwrapINS_4mtOpIdNS_2OpINS_3ColINSt3__17complexIdEEEENS_10op_ifft_cxEEENS_7op_realEEEED1Ev
## BB#20:
	movq	-256(%rbp), %rdi
	callq	__Unwind_Resume
LBB71_21:                               ## %CallStackCheckFailBlk
	callq	___stack_chk_fail
	.cfi_endproc
Leh_func_end71:
	.section	__TEXT,__gcc_except_tab
	.align	2
GCC_except_table71:
Lexception71:
	.byte	255                     ## @LPStart Encoding = omit
	.byte	155                     ## @TType Encoding = indirect pcrel sdata4
	.asciz	"\266\200\200"          ## @TType base offset
	.byte	3                       ## Call site Encoding = udata4
	.byte	52                      ## Call site table length
Lset124 = Leh_func_begin71-Leh_func_begin71 ## >> Call Site 1 <<
	.long	Lset124
Lset125 = Ltmp344-Leh_func_begin71      ##   Call between Leh_func_begin71 and Ltmp344
	.long	Lset125
	.long	0                       ##     has no landing pad
	.byte	0                       ##   On action: cleanup
Lset126 = Ltmp344-Leh_func_begin71      ## >> Call Site 2 <<
	.long	Lset126
Lset127 = Ltmp347-Ltmp344               ##   Call between Ltmp344 and Ltmp347
	.long	Lset127
Lset128 = Ltmp348-Leh_func_begin71      ##     jumps to Ltmp348
	.long	Lset128
	.byte	0                       ##   On action: cleanup
Lset129 = Ltmp349-Leh_func_begin71      ## >> Call Site 3 <<
	.long	Lset129
Lset130 = Ltmp350-Ltmp349               ##   Call between Ltmp349 and Ltmp350
	.long	Lset130
Lset131 = Ltmp351-Leh_func_begin71      ##     jumps to Ltmp351
	.long	Lset131
	.byte	0                       ##   On action: cleanup
Lset132 = Ltmp350-Leh_func_begin71      ## >> Call Site 4 <<
	.long	Lset132
Lset133 = Leh_func_end71-Ltmp350        ##   Call between Ltmp350 and Leh_func_end71
	.long	Lset133
	.long	0                       ##     has no landing pad
	.byte	0                       ##   On action: cleanup
	.align	2

	.section	__TEXT,__textcoal_nt,coalesced,pure_instructions
	.globl	__ZN4arma4realINS_2OpINS_3ColINSt3__17complexIdEEEENS_10op_ifft_cxEEEEENS_10enable_if2IXaasr12is_arma_typeIT_EE5valuesr5is_cxINSA_9elem_typeEEE3yesEKNS_4mtOpINSA_8pod_typeESA_NS_7op_realEEEE6resultERKSA_
	.weak_def_can_be_hidden	__ZN4arma4realINS_2OpINS_3ColINSt3__17complexIdEEEENS_10op_ifft_cxEEEEENS_10enable_if2IXaasr12is_arma_typeIT_EE5valuesr5is_cxINSA_9elem_typeEEE3yesEKNS_4mtOpINSA_8pod_typeESA_NS_7op_realEEEE6resultERKSA_
	.align	4, 0x90
__ZN4arma4realINS_2OpINS_3ColINSt3__17complexIdEEEENS_10op_ifft_cxEEEEENS_10enable_if2IXaasr12is_arma_typeIT_EE5valuesr5is_cxINSA_9elem_typeEEE3yesEKNS_4mtOpINSA_8pod_typeESA_NS_7op_realEEEE6resultERKSA_: ## @_ZN4arma4realINS_2OpINS_3ColINSt3__17complexIdEEEENS_10op_ifft_cxEEEEENS_10enable_if2IXaasr12is_arma_typeIT_EE5valuesr5is_cxINSA_9elem_typeEEE3yesEKNS_4mtOpINSA_8pod_typeESA_NS_7op_realEEEE6resultERKSA_
	.cfi_startproc
## BB#0:
	pushq	%rbp
Ltmp355:
	.cfi_def_cfa_offset 16
Ltmp356:
	.cfi_offset %rbp, -16
	movq	%rsp, %rbp
Ltmp357:
	.cfi_def_cfa_register %rbp
	subq	$16, %rsp
	movq	%rdi, %rax
	movq	%rsi, -8(%rbp)
	movq	-8(%rbp), %rsi
	movq	%rax, -16(%rbp)         ## 8-byte Spill
	callq	__ZN4arma4mtOpIdNS_2OpINS_3ColINSt3__17complexIdEEEENS_10op_ifft_cxEEENS_7op_realEEC1ERKS8_
	movq	-16(%rbp), %rax         ## 8-byte Reload
	addq	$16, %rsp
	popq	%rbp
	retq
	.cfi_endproc

	.globl	__ZN4arma4ifftINS_3ColINSt3__17complexIdEEEEEENS_10enable_if2IXaasr12is_arma_typeIT_EE5valuesr17is_complex_strictINS7_9elem_typeEEE5valueEKNS_2OpIS7_NS_10op_ifft_cxEEEE6resultERKS7_
	.weak_def_can_be_hidden	__ZN4arma4ifftINS_3ColINSt3__17complexIdEEEEEENS_10enable_if2IXaasr12is_arma_typeIT_EE5valuesr17is_complex_strictINS7_9elem_typeEEE5valueEKNS_2OpIS7_NS_10op_ifft_cxEEEE6resultERKS7_
	.align	4, 0x90
__ZN4arma4ifftINS_3ColINSt3__17complexIdEEEEEENS_10enable_if2IXaasr12is_arma_typeIT_EE5valuesr17is_complex_strictINS7_9elem_typeEEE5valueEKNS_2OpIS7_NS_10op_ifft_cxEEEE6resultERKS7_: ## @_ZN4arma4ifftINS_3ColINSt3__17complexIdEEEEEENS_10enable_if2IXaasr12is_arma_typeIT_EE5valuesr17is_complex_strictINS7_9elem_typeEEE5valueEKNS_2OpIS7_NS_10op_ifft_cxEEEE6resultERKS7_
	.cfi_startproc
## BB#0:
	pushq	%rbp
Ltmp358:
	.cfi_def_cfa_offset 16
Ltmp359:
	.cfi_offset %rbp, -16
	movq	%rsp, %rbp
Ltmp360:
	.cfi_def_cfa_register %rbp
	subq	$16, %rsp
	movq	%rdi, %rax
	xorl	%edx, %edx
	movl	$1, %ecx
	movq	%rsi, -8(%rbp)
	movq	-8(%rbp), %rsi
	movq	%rax, -16(%rbp)         ## 8-byte Spill
	callq	__ZN4arma2OpINS_3ColINSt3__17complexIdEEEENS_10op_ifft_cxEEC1ERKS5_jj
	movq	-16(%rbp), %rax         ## 8-byte Reload
	addq	$16, %rsp
	popq	%rbp
	retq
	.cfi_endproc

	.globl	__ZN4arma4mtOpIdNS_2OpINS_3ColINSt3__17complexIdEEEENS_10op_ifft_cxEEENS_7op_realEED1Ev
	.weak_def_can_be_hidden	__ZN4arma4mtOpIdNS_2OpINS_3ColINSt3__17complexIdEEEENS_10op_ifft_cxEEENS_7op_realEED1Ev
	.align	4, 0x90
__ZN4arma4mtOpIdNS_2OpINS_3ColINSt3__17complexIdEEEENS_10op_ifft_cxEEENS_7op_realEED1Ev: ## @_ZN4arma4mtOpIdNS_2OpINS_3ColINSt3__17complexIdEEEENS_10op_ifft_cxEEENS_7op_realEED1Ev
	.cfi_startproc
## BB#0:
	pushq	%rbp
Ltmp361:
	.cfi_def_cfa_offset 16
Ltmp362:
	.cfi_offset %rbp, -16
	movq	%rsp, %rbp
Ltmp363:
	.cfi_def_cfa_register %rbp
	subq	$16, %rsp
	movq	%rdi, -8(%rbp)
	movq	-8(%rbp), %rdi
	callq	__ZN4arma4mtOpIdNS_2OpINS_3ColINSt3__17complexIdEEEENS_10op_ifft_cxEEENS_7op_realEED2Ev
	addq	$16, %rsp
	popq	%rbp
	retq
	.cfi_endproc

	.globl	__ZN4arma2OpINS_3ColINSt3__17complexIdEEEENS_10op_ifft_cxEED1Ev
	.weak_def_can_be_hidden	__ZN4arma2OpINS_3ColINSt3__17complexIdEEEENS_10op_ifft_cxEED1Ev
	.align	4, 0x90
__ZN4arma2OpINS_3ColINSt3__17complexIdEEEENS_10op_ifft_cxEED1Ev: ## @_ZN4arma2OpINS_3ColINSt3__17complexIdEEEENS_10op_ifft_cxEED1Ev
	.cfi_startproc
## BB#0:
	pushq	%rbp
Ltmp364:
	.cfi_def_cfa_offset 16
Ltmp365:
	.cfi_offset %rbp, -16
	movq	%rsp, %rbp
Ltmp366:
	.cfi_def_cfa_register %rbp
	subq	$16, %rsp
	movq	%rdi, -8(%rbp)
	movq	-8(%rbp), %rdi
	callq	__ZN4arma2OpINS_3ColINSt3__17complexIdEEEENS_10op_ifft_cxEED2Ev
	addq	$16, %rsp
	popq	%rbp
	retq
	.cfi_endproc

	.globl	__ZN4arma3ColINSt3__17complexIdEEED1Ev
	.weak_def_can_be_hidden	__ZN4arma3ColINSt3__17complexIdEEED1Ev
	.align	4, 0x90
__ZN4arma3ColINSt3__17complexIdEEED1Ev: ## @_ZN4arma3ColINSt3__17complexIdEEED1Ev
	.cfi_startproc
## BB#0:
	pushq	%rbp
Ltmp367:
	.cfi_def_cfa_offset 16
Ltmp368:
	.cfi_offset %rbp, -16
	movq	%rsp, %rbp
Ltmp369:
	.cfi_def_cfa_register %rbp
	subq	$16, %rsp
	movq	%rdi, -8(%rbp)
	movq	-8(%rbp), %rdi
	callq	__ZN4arma3ColINSt3__17complexIdEEED2Ev
	addq	$16, %rsp
	popq	%rbp
	retq
	.cfi_endproc

	.globl	__ZN4arma3ColIdED1Ev
	.weak_def_can_be_hidden	__ZN4arma3ColIdED1Ev
	.align	4, 0x90
__ZN4arma3ColIdED1Ev:                   ## @_ZN4arma3ColIdED1Ev
	.cfi_startproc
## BB#0:
	pushq	%rbp
Ltmp370:
	.cfi_def_cfa_offset 16
Ltmp371:
	.cfi_offset %rbp, -16
	movq	%rsp, %rbp
Ltmp372:
	.cfi_def_cfa_register %rbp
	subq	$16, %rsp
	movq	%rdi, -8(%rbp)
	movq	-8(%rbp), %rdi
	callq	__ZN4arma3ColIdED2Ev
	addq	$16, %rsp
	popq	%rbp
	retq
	.cfi_endproc

	.section	__TEXT,__StaticInit,regular,pure_instructions
	.align	4, 0x90
___cxx_global_var_init31:               ## @__cxx_global_var_init31
	.cfi_startproc
## BB#0:
	pushq	%rbp
Ltmp373:
	.cfi_def_cfa_offset 16
Ltmp374:
	.cfi_offset %rbp, -16
	movq	%rsp, %rbp
Ltmp375:
	.cfi_def_cfa_register %rbp
	movq	__ZGVN5boost4math7lanczos19lanczos_initializerINS1_12lanczos17m64EeE11initializerE@GOTPCREL(%rip), %rax
	cmpb	$0, (%rax)
	jne	LBB78_2
## BB#1:
	movq	__ZN5boost4math7lanczos19lanczos_initializerINS1_12lanczos17m64EeE11initializerE@GOTPCREL(%rip), %rdi
	callq	__ZN5boost4math7lanczos19lanczos_initializerINS1_12lanczos17m64EeE4initC1Ev
	movq	__ZGVN5boost4math7lanczos19lanczos_initializerINS1_12lanczos17m64EeE11initializerE@GOTPCREL(%rip), %rdi
	movq	$1, (%rdi)
LBB78_2:
	popq	%rbp
	retq
	.cfi_endproc

	.section	__TEXT,__textcoal_nt,coalesced,pure_instructions
	.globl	__ZN5boost4math7lanczos19lanczos_initializerINS1_12lanczos17m64EeE4initC1Ev
	.weak_def_can_be_hidden	__ZN5boost4math7lanczos19lanczos_initializerINS1_12lanczos17m64EeE4initC1Ev
	.align	4, 0x90
__ZN5boost4math7lanczos19lanczos_initializerINS1_12lanczos17m64EeE4initC1Ev: ## @_ZN5boost4math7lanczos19lanczos_initializerINS1_12lanczos17m64EeE4initC1Ev
	.cfi_startproc
## BB#0:
	pushq	%rbp
Ltmp376:
	.cfi_def_cfa_offset 16
Ltmp377:
	.cfi_offset %rbp, -16
	movq	%rsp, %rbp
Ltmp378:
	.cfi_def_cfa_register %rbp
	subq	$16, %rsp
	movq	%rdi, -8(%rbp)
	movq	-8(%rbp), %rdi
	callq	__ZN5boost4math7lanczos19lanczos_initializerINS1_12lanczos17m64EeE4initC2Ev
	addq	$16, %rsp
	popq	%rbp
	retq
	.cfi_endproc

	.globl	__ZN4arma12quasi_unwrapINS_4mtOpIdNS_2OpINS_3ColINSt3__17complexIdEEEENS_10op_ifft_cxEEENS_7op_realEEEEC1ERKSB_
	.weak_def_can_be_hidden	__ZN4arma12quasi_unwrapINS_4mtOpIdNS_2OpINS_3ColINSt3__17complexIdEEEENS_10op_ifft_cxEEENS_7op_realEEEEC1ERKSB_
	.align	4, 0x90
__ZN4arma12quasi_unwrapINS_4mtOpIdNS_2OpINS_3ColINSt3__17complexIdEEEENS_10op_ifft_cxEEENS_7op_realEEEEC1ERKSB_: ## @_ZN4arma12quasi_unwrapINS_4mtOpIdNS_2OpINS_3ColINSt3__17complexIdEEEENS_10op_ifft_cxEEENS_7op_realEEEEC1ERKSB_
	.cfi_startproc
## BB#0:
	pushq	%rbp
Ltmp379:
	.cfi_def_cfa_offset 16
Ltmp380:
	.cfi_offset %rbp, -16
	movq	%rsp, %rbp
Ltmp381:
	.cfi_def_cfa_register %rbp
	subq	$16, %rsp
	movq	%rdi, -8(%rbp)
	movq	%rsi, -16(%rbp)
	movq	-8(%rbp), %rdi
	movq	-16(%rbp), %rsi
	callq	__ZN4arma12quasi_unwrapINS_4mtOpIdNS_2OpINS_3ColINSt3__17complexIdEEEENS_10op_ifft_cxEEENS_7op_realEEEEC2ERKSB_
	addq	$16, %rsp
	popq	%rbp
	retq
	.cfi_endproc

	.globl	__ZN4arma10arma_checkIA57_cEEvbRKT_
	.weak_def_can_be_hidden	__ZN4arma10arma_checkIA57_cEEvbRKT_
	.align	4, 0x90
__ZN4arma10arma_checkIA57_cEEvbRKT_:    ## @_ZN4arma10arma_checkIA57_cEEvbRKT_
	.cfi_startproc
## BB#0:
	pushq	%rbp
Ltmp382:
	.cfi_def_cfa_offset 16
Ltmp383:
	.cfi_offset %rbp, -16
	movq	%rsp, %rbp
Ltmp384:
	.cfi_def_cfa_register %rbp
	subq	$32, %rsp
	movb	%dil, %al
	andb	$1, %al
	movb	%al, -1(%rbp)
	movq	%rsi, -16(%rbp)
	movb	-1(%rbp), %al
	andb	$1, %al
	movzbl	%al, %edi
	cmpl	$1, %edi
	jne	LBB81_2
## BB#1:
	xorl	%eax, %eax
	movl	%eax, %esi
	movq	-16(%rbp), %rdi
	callq	__ZN4arma10arma_boostL11str_wrapperIcEEPKT_S4_PKNS0_9char_onlyIS2_E6resultE
	leaq	-24(%rbp), %rdi
	movq	%rax, -24(%rbp)
	callq	__ZN4armaL9arma_stopIPKcEEvRKT_
LBB81_2:
	addq	$32, %rsp
	popq	%rbp
	retq
	.cfi_endproc

	.globl	__ZNSt3__16vectorIdNS_9allocatorIdEEEC1Em
	.weak_def_can_be_hidden	__ZNSt3__16vectorIdNS_9allocatorIdEEEC1Em
	.align	4, 0x90
__ZNSt3__16vectorIdNS_9allocatorIdEEEC1Em: ## @_ZNSt3__16vectorIdNS_9allocatorIdEEEC1Em
	.cfi_startproc
## BB#0:
	pushq	%rbp
Ltmp385:
	.cfi_def_cfa_offset 16
Ltmp386:
	.cfi_offset %rbp, -16
	movq	%rsp, %rbp
Ltmp387:
	.cfi_def_cfa_register %rbp
	subq	$16, %rsp
	movq	%rdi, -8(%rbp)
	movq	%rsi, -16(%rbp)
	movq	-8(%rbp), %rdi
	movq	-16(%rbp), %rsi
	callq	__ZNSt3__16vectorIdNS_9allocatorIdEEEC2Em
	addq	$16, %rsp
	popq	%rbp
	retq
	.cfi_endproc

	.globl	__ZN4arma8arrayops7convertIddEEvPT_PKT0_j
	.weak_def_can_be_hidden	__ZN4arma8arrayops7convertIddEEvPT_PKT0_j
	.align	4, 0x90
__ZN4arma8arrayops7convertIddEEvPT_PKT0_j: ## @_ZN4arma8arrayops7convertIddEEvPT_PKT0_j
	.cfi_startproc
## BB#0:
	pushq	%rbp
Ltmp388:
	.cfi_def_cfa_offset 16
Ltmp389:
	.cfi_offset %rbp, -16
	movq	%rsp, %rbp
Ltmp390:
	.cfi_def_cfa_register %rbp
	subq	$80, %rsp
	movq	%rdi, -32(%rbp)
	movq	%rsi, -40(%rbp)
	movl	%edx, -44(%rbp)
	movq	-40(%rbp), %rsi
	movq	%rsi, -56(%rbp)
	movq	-32(%rbp), %rsi
	cmpq	-56(%rbp), %rsi
	je	LBB83_5
## BB#1:
	movq	-32(%rbp), %rax
	movq	-56(%rbp), %rcx
	movl	-44(%rbp), %edx
	movq	%rax, -8(%rbp)
	movq	%rcx, -16(%rbp)
	movl	%edx, -20(%rbp)
	cmpl	$16, -20(%rbp)
	ja	LBB83_3
## BB#2:
	movq	-8(%rbp), %rdi
	movq	-16(%rbp), %rsi
	movl	-20(%rbp), %edx
	callq	__ZN4arma8arrayops10copy_smallIdEEvPT_PKS2_j
	jmp	LBB83_4
LBB83_3:
	movq	-8(%rbp), %rax
	movq	-16(%rbp), %rcx
	movl	-20(%rbp), %edx
	movl	%edx, %esi
	shlq	$3, %rsi
	movq	%rax, %rdi
	movq	%rsi, -72(%rbp)         ## 8-byte Spill
	movq	%rcx, %rsi
	movq	-72(%rbp), %rdx         ## 8-byte Reload
	callq	_memcpy
LBB83_4:                                ## %_ZN4arma8arrayops4copyIdEEvPT_PKS2_j.exit
	jmp	LBB83_5
LBB83_5:
	addq	$80, %rsp
	popq	%rbp
	retq
	.cfi_endproc

	.globl	__ZN4arma12quasi_unwrapINS_4mtOpIdNS_2OpINS_3ColINSt3__17complexIdEEEENS_10op_ifft_cxEEENS_7op_realEEEED1Ev
	.weak_def_can_be_hidden	__ZN4arma12quasi_unwrapINS_4mtOpIdNS_2OpINS_3ColINSt3__17complexIdEEEENS_10op_ifft_cxEEENS_7op_realEEEED1Ev
	.align	4, 0x90
__ZN4arma12quasi_unwrapINS_4mtOpIdNS_2OpINS_3ColINSt3__17complexIdEEEENS_10op_ifft_cxEEENS_7op_realEEEED1Ev: ## @_ZN4arma12quasi_unwrapINS_4mtOpIdNS_2OpINS_3ColINSt3__17complexIdEEEENS_10op_ifft_cxEEENS_7op_realEEEED1Ev
	.cfi_startproc
## BB#0:
	pushq	%rbp
Ltmp391:
	.cfi_def_cfa_offset 16
Ltmp392:
	.cfi_offset %rbp, -16
	movq	%rsp, %rbp
Ltmp393:
	.cfi_def_cfa_register %rbp
	subq	$16, %rsp
	movq	%rdi, -8(%rbp)
	movq	-8(%rbp), %rdi
	callq	__ZN4arma12quasi_unwrapINS_4mtOpIdNS_2OpINS_3ColINSt3__17complexIdEEEENS_10op_ifft_cxEEENS_7op_realEEEED2Ev
	addq	$16, %rsp
	popq	%rbp
	retq
	.cfi_endproc

	.globl	__ZN4arma12quasi_unwrapINS_4mtOpIdNS_2OpINS_3ColINSt3__17complexIdEEEENS_10op_ifft_cxEEENS_7op_realEEEED2Ev
	.weak_def_can_be_hidden	__ZN4arma12quasi_unwrapINS_4mtOpIdNS_2OpINS_3ColINSt3__17complexIdEEEENS_10op_ifft_cxEEENS_7op_realEEEED2Ev
	.align	4, 0x90
__ZN4arma12quasi_unwrapINS_4mtOpIdNS_2OpINS_3ColINSt3__17complexIdEEEENS_10op_ifft_cxEEENS_7op_realEEEED2Ev: ## @_ZN4arma12quasi_unwrapINS_4mtOpIdNS_2OpINS_3ColINSt3__17complexIdEEEENS_10op_ifft_cxEEENS_7op_realEEEED2Ev
	.cfi_startproc
## BB#0:
	pushq	%rbp
Ltmp394:
	.cfi_def_cfa_offset 16
Ltmp395:
	.cfi_offset %rbp, -16
	movq	%rsp, %rbp
Ltmp396:
	.cfi_def_cfa_register %rbp
	subq	$16, %rsp
	movq	%rdi, -8(%rbp)
	movq	-8(%rbp), %rdi
	callq	__ZN4arma3MatIdED1Ev
	addq	$16, %rsp
	popq	%rbp
	retq
	.cfi_endproc

	.globl	__ZN4arma3MatIdED1Ev
	.weak_def_can_be_hidden	__ZN4arma3MatIdED1Ev
	.align	4, 0x90
__ZN4arma3MatIdED1Ev:                   ## @_ZN4arma3MatIdED1Ev
	.cfi_startproc
## BB#0:
	pushq	%rbp
Ltmp397:
	.cfi_def_cfa_offset 16
Ltmp398:
	.cfi_offset %rbp, -16
	movq	%rsp, %rbp
Ltmp399:
	.cfi_def_cfa_register %rbp
	subq	$16, %rsp
	movq	%rdi, -8(%rbp)
	movq	-8(%rbp), %rdi
	callq	__ZN4arma3MatIdED2Ev
	addq	$16, %rsp
	popq	%rbp
	retq
	.cfi_endproc

	.globl	__ZN4arma3MatIdED2Ev
	.weak_def_can_be_hidden	__ZN4arma3MatIdED2Ev
	.align	4, 0x90
__ZN4arma3MatIdED2Ev:                   ## @_ZN4arma3MatIdED2Ev
	.cfi_startproc
	.cfi_personality 155, ___gxx_personality_v0
Leh_func_begin87:
	.cfi_lsda 16, Lexception87
## BB#0:
	pushq	%rbp
Ltmp403:
	.cfi_def_cfa_offset 16
Ltmp404:
	.cfi_offset %rbp, -16
	movq	%rsp, %rbp
Ltmp405:
	.cfi_def_cfa_register %rbp
	subq	$64, %rsp
	movq	%rdi, -32(%rbp)
	movq	-32(%rbp), %rdi
	movzwl	14(%rdi), %eax
	cmpl	$0, %eax
	movq	%rdi, -40(%rbp)         ## 8-byte Spill
	jne	LBB87_7
## BB#1:
	movq	-40(%rbp), %rax         ## 8-byte Reload
	cmpl	$16, 8(%rax)
	jbe	LBB87_6
## BB#2:
	movq	-40(%rbp), %rax         ## 8-byte Reload
	addq	$16, %rax
	movq	%rax, -24(%rbp)
	movq	-24(%rbp), %rax
	movq	%rax, -48(%rbp)         ## 8-byte Spill
## BB#3:
	movq	-48(%rbp), %rax         ## 8-byte Reload
	movq	(%rax), %rcx
	movq	%rcx, -16(%rbp)
Ltmp400:
	movq	%rcx, %rdi
	callq	_free
Ltmp401:
	jmp	LBB87_4
LBB87_4:                                ## %_ZN4arma6memory7releaseIKdEEvPT_.exit
	jmp	LBB87_5
LBB87_5:
	jmp	LBB87_6
LBB87_6:
	jmp	LBB87_7
LBB87_7:
	movq	-40(%rbp), %rax         ## 8-byte Reload
	addq	$16, %rax
	movq	%rax, -8(%rbp)
	movq	-8(%rbp), %rax
	movq	%rax, -56(%rbp)         ## 8-byte Spill
## BB#8:
	movq	-56(%rbp), %rax         ## 8-byte Reload
	movq	$0, (%rax)
	addq	$64, %rsp
	popq	%rbp
	retq
LBB87_9:
Ltmp402:
	movl	%edx, %ecx
	movq	%rax, %rdi
	movl	%ecx, -60(%rbp)         ## 4-byte Spill
	callq	___clang_call_terminate
	.cfi_endproc
Leh_func_end87:
	.section	__TEXT,__gcc_except_tab
	.align	2
GCC_except_table87:
Lexception87:
	.byte	255                     ## @LPStart Encoding = omit
	.byte	155                     ## @TType Encoding = indirect pcrel sdata4
	.byte	21                      ## @TType base offset
	.byte	3                       ## Call site Encoding = udata4
	.byte	13                      ## Call site table length
Lset134 = Ltmp400-Leh_func_begin87      ## >> Call Site 1 <<
	.long	Lset134
Lset135 = Ltmp401-Ltmp400               ##   Call between Ltmp400 and Ltmp401
	.long	Lset135
Lset136 = Ltmp402-Leh_func_begin87      ##     jumps to Ltmp402
	.long	Lset136
	.byte	1                       ##   On action: 1
	.byte	1                       ## >> Action Record 1 <<
                                        ##   Catch TypeInfo 1
	.byte	0                       ##   No further actions
                                        ## >> Catch TypeInfos <<
	.long	0                       ## TypeInfo 1
	.align	2

	.section	__TEXT,__textcoal_nt,coalesced,pure_instructions
	.globl	__ZN4arma8arrayops10copy_smallIdEEvPT_PKS2_j
	.weak_def_can_be_hidden	__ZN4arma8arrayops10copy_smallIdEEvPT_PKS2_j
	.align	4, 0x90
__ZN4arma8arrayops10copy_smallIdEEvPT_PKS2_j: ## @_ZN4arma8arrayops10copy_smallIdEEvPT_PKS2_j
	.cfi_startproc
## BB#0:
	pushq	%rbp
Ltmp406:
	.cfi_def_cfa_offset 16
Ltmp407:
	.cfi_offset %rbp, -16
	movq	%rsp, %rbp
Ltmp408:
	.cfi_def_cfa_register %rbp
	movq	%rdi, -8(%rbp)
	movq	%rsi, -16(%rbp)
	movl	%edx, -20(%rbp)
	decl	%edx
	movl	%edx, %esi
	subl	$15, %edx
	movq	%rsi, -32(%rbp)         ## 8-byte Spill
	movl	%edx, -36(%rbp)         ## 4-byte Spill
	ja	LBB88_17
## BB#19:
	leaq	LJTI88_0(%rip), %rax
	movq	-32(%rbp), %rcx         ## 8-byte Reload
	movslq	(%rax,%rcx,4), %rdx
	addq	%rax, %rdx
	jmpq	*%rdx
LBB88_1:
	movq	-16(%rbp), %rax
	movsd	120(%rax), %xmm0
	movq	-8(%rbp), %rax
	movsd	%xmm0, 120(%rax)
LBB88_2:
	movq	-16(%rbp), %rax
	movsd	112(%rax), %xmm0
	movq	-8(%rbp), %rax
	movsd	%xmm0, 112(%rax)
LBB88_3:
	movq	-16(%rbp), %rax
	movsd	104(%rax), %xmm0
	movq	-8(%rbp), %rax
	movsd	%xmm0, 104(%rax)
LBB88_4:
	movq	-16(%rbp), %rax
	movsd	96(%rax), %xmm0
	movq	-8(%rbp), %rax
	movsd	%xmm0, 96(%rax)
LBB88_5:
	movq	-16(%rbp), %rax
	movsd	88(%rax), %xmm0
	movq	-8(%rbp), %rax
	movsd	%xmm0, 88(%rax)
LBB88_6:
	movq	-16(%rbp), %rax
	movsd	80(%rax), %xmm0
	movq	-8(%rbp), %rax
	movsd	%xmm0, 80(%rax)
LBB88_7:
	movq	-16(%rbp), %rax
	movsd	72(%rax), %xmm0
	movq	-8(%rbp), %rax
	movsd	%xmm0, 72(%rax)
LBB88_8:
	movq	-16(%rbp), %rax
	movsd	64(%rax), %xmm0
	movq	-8(%rbp), %rax
	movsd	%xmm0, 64(%rax)
LBB88_9:
	movq	-16(%rbp), %rax
	movsd	56(%rax), %xmm0
	movq	-8(%rbp), %rax
	movsd	%xmm0, 56(%rax)
LBB88_10:
	movq	-16(%rbp), %rax
	movsd	48(%rax), %xmm0
	movq	-8(%rbp), %rax
	movsd	%xmm0, 48(%rax)
LBB88_11:
	movq	-16(%rbp), %rax
	movsd	40(%rax), %xmm0
	movq	-8(%rbp), %rax
	movsd	%xmm0, 40(%rax)
LBB88_12:
	movq	-16(%rbp), %rax
	movsd	32(%rax), %xmm0
	movq	-8(%rbp), %rax
	movsd	%xmm0, 32(%rax)
LBB88_13:
	movq	-16(%rbp), %rax
	movsd	24(%rax), %xmm0
	movq	-8(%rbp), %rax
	movsd	%xmm0, 24(%rax)
LBB88_14:
	movq	-16(%rbp), %rax
	movsd	16(%rax), %xmm0
	movq	-8(%rbp), %rax
	movsd	%xmm0, 16(%rax)
LBB88_15:
	movq	-16(%rbp), %rax
	movsd	8(%rax), %xmm0
	movq	-8(%rbp), %rax
	movsd	%xmm0, 8(%rax)
LBB88_16:
	movq	-16(%rbp), %rax
	movsd	(%rax), %xmm0
	movq	-8(%rbp), %rax
	movsd	%xmm0, (%rax)
LBB88_17:
	jmp	LBB88_18
LBB88_18:
	popq	%rbp
	retq
	.cfi_endproc
	.align	2, 0x90
L88_0_set_16 = LBB88_16-LJTI88_0
L88_0_set_15 = LBB88_15-LJTI88_0
L88_0_set_14 = LBB88_14-LJTI88_0
L88_0_set_13 = LBB88_13-LJTI88_0
L88_0_set_12 = LBB88_12-LJTI88_0
L88_0_set_11 = LBB88_11-LJTI88_0
L88_0_set_10 = LBB88_10-LJTI88_0
L88_0_set_9 = LBB88_9-LJTI88_0
L88_0_set_8 = LBB88_8-LJTI88_0
L88_0_set_7 = LBB88_7-LJTI88_0
L88_0_set_6 = LBB88_6-LJTI88_0
L88_0_set_5 = LBB88_5-LJTI88_0
L88_0_set_4 = LBB88_4-LJTI88_0
L88_0_set_3 = LBB88_3-LJTI88_0
L88_0_set_2 = LBB88_2-LJTI88_0
L88_0_set_1 = LBB88_1-LJTI88_0
LJTI88_0:
	.long	L88_0_set_16
	.long	L88_0_set_15
	.long	L88_0_set_14
	.long	L88_0_set_13
	.long	L88_0_set_12
	.long	L88_0_set_11
	.long	L88_0_set_10
	.long	L88_0_set_9
	.long	L88_0_set_8
	.long	L88_0_set_7
	.long	L88_0_set_6
	.long	L88_0_set_5
	.long	L88_0_set_4
	.long	L88_0_set_3
	.long	L88_0_set_2
	.long	L88_0_set_1

	.globl	__ZNSt3__16vectorIdNS_9allocatorIdEEEC2Em
	.weak_def_can_be_hidden	__ZNSt3__16vectorIdNS_9allocatorIdEEEC2Em
	.align	4, 0x90
__ZNSt3__16vectorIdNS_9allocatorIdEEEC2Em: ## @_ZNSt3__16vectorIdNS_9allocatorIdEEEC2Em
	.cfi_startproc
	.cfi_personality 155, ___gxx_personality_v0
Leh_func_begin89:
	.cfi_lsda 16, Lexception89
## BB#0:
	pushq	%rbp
Ltmp414:
	.cfi_def_cfa_offset 16
Ltmp415:
	.cfi_offset %rbp, -16
	movq	%rsp, %rbp
Ltmp416:
	.cfi_def_cfa_register %rbp
	subq	$128, %rsp
	leaq	-32(%rbp), %rax
	leaq	-56(%rbp), %rcx
	movq	%rdi, -96(%rbp)
	movq	%rsi, -104(%rbp)
	movq	-96(%rbp), %rsi
	movq	%rsi, %rdi
	movq	%rdi, -88(%rbp)
	movq	-88(%rbp), %rdi
	movq	%rdi, %rdx
	movq	%rdx, -80(%rbp)
	movq	$0, (%rdi)
	movq	$0, 8(%rdi)
	addq	$16, %rdi
	movq	%rdi, -64(%rbp)
	movq	$0, -72(%rbp)
	movq	-64(%rbp), %rdx
	movq	-72(%rbp), %rdi
	movq	%rdx, -48(%rbp)
	movq	%rdi, -56(%rbp)
	movq	-48(%rbp), %rdx
	movq	%rcx, -40(%rbp)
	movq	-40(%rbp), %rcx
	movq	(%rcx), %rcx
	movq	%rdx, -24(%rbp)
	movq	%rcx, -32(%rbp)
	movq	-24(%rbp), %rcx
	movq	%rcx, %rdx
	movq	%rdx, -16(%rbp)
	movq	%rax, -8(%rbp)
	movq	-8(%rbp), %rax
	movq	(%rax), %rax
	movq	%rax, (%rcx)
	cmpq	$0, -104(%rbp)
	movq	%rsi, -128(%rbp)        ## 8-byte Spill
	jbe	LBB89_5
## BB#1:
	movq	-104(%rbp), %rsi
Ltmp409:
	movq	-128(%rbp), %rdi        ## 8-byte Reload
	callq	__ZNSt3__16vectorIdNS_9allocatorIdEEE8allocateEm
Ltmp410:
	jmp	LBB89_2
LBB89_2:
	movq	-104(%rbp), %rsi
Ltmp411:
	movq	-128(%rbp), %rdi        ## 8-byte Reload
	callq	__ZNSt3__16vectorIdNS_9allocatorIdEEE18__construct_at_endEm
Ltmp412:
	jmp	LBB89_3
LBB89_3:
	jmp	LBB89_5
LBB89_4:
Ltmp413:
	movl	%edx, %ecx
	movq	%rax, -112(%rbp)
	movl	%ecx, -116(%rbp)
	movq	-128(%rbp), %rax        ## 8-byte Reload
	movq	%rax, %rdi
	callq	__ZNSt3__113__vector_baseIdNS_9allocatorIdEEED2Ev
	jmp	LBB89_6
LBB89_5:
	addq	$128, %rsp
	popq	%rbp
	retq
LBB89_6:
	movq	-112(%rbp), %rdi
	callq	__Unwind_Resume
	.cfi_endproc
Leh_func_end89:
	.section	__TEXT,__gcc_except_tab
	.align	2
GCC_except_table89:
Lexception89:
	.byte	255                     ## @LPStart Encoding = omit
	.byte	155                     ## @TType Encoding = indirect pcrel sdata4
	.asciz	"\234"                  ## @TType base offset
	.byte	3                       ## Call site Encoding = udata4
	.byte	26                      ## Call site table length
Lset137 = Ltmp409-Leh_func_begin89      ## >> Call Site 1 <<
	.long	Lset137
Lset138 = Ltmp412-Ltmp409               ##   Call between Ltmp409 and Ltmp412
	.long	Lset138
Lset139 = Ltmp413-Leh_func_begin89      ##     jumps to Ltmp413
	.long	Lset139
	.byte	0                       ##   On action: cleanup
Lset140 = Ltmp412-Leh_func_begin89      ## >> Call Site 2 <<
	.long	Lset140
Lset141 = Leh_func_end89-Ltmp412        ##   Call between Ltmp412 and Leh_func_end89
	.long	Lset141
	.long	0                       ##     has no landing pad
	.byte	0                       ##   On action: cleanup
	.align	2

	.section	__TEXT,__textcoal_nt,coalesced,pure_instructions
	.globl	__ZNSt3__16vectorIdNS_9allocatorIdEEE8allocateEm
	.weak_def_can_be_hidden	__ZNSt3__16vectorIdNS_9allocatorIdEEE8allocateEm
	.align	4, 0x90
__ZNSt3__16vectorIdNS_9allocatorIdEEE8allocateEm: ## @_ZNSt3__16vectorIdNS_9allocatorIdEEE8allocateEm
	.cfi_startproc
## BB#0:
	pushq	%rbp
Ltmp417:
	.cfi_def_cfa_offset 16
Ltmp418:
	.cfi_offset %rbp, -16
	movq	%rsp, %rbp
Ltmp419:
	.cfi_def_cfa_register %rbp
	subq	$128, %rsp
	movq	%rdi, -104(%rbp)
	movq	%rsi, -112(%rbp)
	movq	-104(%rbp), %rsi
	movq	-112(%rbp), %rdi
	movq	%rdi, -120(%rbp)        ## 8-byte Spill
	movq	%rsi, %rdi
	movq	%rsi, -128(%rbp)        ## 8-byte Spill
	callq	__ZNKSt3__16vectorIdNS_9allocatorIdEEE8max_sizeEv
	movq	-120(%rbp), %rsi        ## 8-byte Reload
	cmpq	%rax, %rsi
	jbe	LBB90_2
## BB#1:
	movq	-128(%rbp), %rax        ## 8-byte Reload
	movq	%rax, %rdi
	callq	__ZNKSt3__120__vector_base_commonILb1EE20__throw_length_errorEv
LBB90_2:
	movq	-128(%rbp), %rax        ## 8-byte Reload
	movq	%rax, -96(%rbp)
	movq	-96(%rbp), %rax
	addq	$16, %rax
	movq	%rax, -88(%rbp)
	movq	-88(%rbp), %rax
	movq	%rax, -80(%rbp)
	movq	-80(%rbp), %rax
	movq	-112(%rbp), %rcx
	movq	%rax, -64(%rbp)
	movq	%rcx, -72(%rbp)
	movq	-64(%rbp), %rax
	movq	-72(%rbp), %rcx
	movq	%rax, -40(%rbp)
	movq	%rcx, -48(%rbp)
	movq	$0, -56(%rbp)
	movq	-48(%rbp), %rax
	shlq	$3, %rax
	movq	%rax, -32(%rbp)
	movq	-32(%rbp), %rdi
	callq	__Znwm
	xorl	%edx, %edx
	movl	%edx, %esi
	movq	-128(%rbp), %rcx        ## 8-byte Reload
	movq	%rax, 8(%rcx)
	movq	%rax, (%rcx)
	movq	(%rcx), %rax
	movq	-112(%rbp), %rdi
	shlq	$3, %rdi
	addq	%rdi, %rax
	movq	%rcx, -24(%rbp)
	movq	-24(%rbp), %rcx
	addq	$16, %rcx
	movq	%rcx, -16(%rbp)
	movq	-16(%rbp), %rcx
	movq	%rcx, -8(%rbp)
	movq	-8(%rbp), %rcx
	movq	%rax, (%rcx)
	movq	-128(%rbp), %rdi        ## 8-byte Reload
	callq	__ZNSt3__16vectorIdNS_9allocatorIdEEE14__annotate_newEm
	addq	$128, %rsp
	popq	%rbp
	retq
	.cfi_endproc

	.globl	__ZNSt3__16vectorIdNS_9allocatorIdEEE18__construct_at_endEm
	.weak_def_can_be_hidden	__ZNSt3__16vectorIdNS_9allocatorIdEEE18__construct_at_endEm
	.align	4, 0x90
__ZNSt3__16vectorIdNS_9allocatorIdEEE18__construct_at_endEm: ## @_ZNSt3__16vectorIdNS_9allocatorIdEEE18__construct_at_endEm
	.cfi_startproc
## BB#0:
	pushq	%rbp
Ltmp420:
	.cfi_def_cfa_offset 16
Ltmp421:
	.cfi_offset %rbp, -16
	movq	%rsp, %rbp
Ltmp422:
	.cfi_def_cfa_register %rbp
	subq	$160, %rsp
	movq	%rdi, -112(%rbp)
	movq	%rsi, -120(%rbp)
	movq	-112(%rbp), %rsi
	movq	%rsi, %rdi
	movq	%rdi, -104(%rbp)
	movq	-104(%rbp), %rdi
	addq	$16, %rdi
	movq	%rdi, -96(%rbp)
	movq	-96(%rbp), %rdi
	movq	%rdi, -88(%rbp)
	movq	-88(%rbp), %rdi
	movq	%rdi, -128(%rbp)
	movq	-120(%rbp), %rdi
	movq	%rdi, -136(%rbp)        ## 8-byte Spill
	movq	%rsi, %rdi
	movq	-136(%rbp), %rax        ## 8-byte Reload
	movq	%rsi, -144(%rbp)        ## 8-byte Spill
	movq	%rax, %rsi
	callq	__ZNSt3__16vectorIdNS_9allocatorIdEEE19__annotate_increaseEm
LBB91_1:                                ## =>This Inner Loop Header: Depth=1
	movq	-128(%rbp), %rax
	movq	-144(%rbp), %rcx        ## 8-byte Reload
	movq	8(%rcx), %rdx
	movq	%rdx, -8(%rbp)
	movq	-8(%rbp), %rdx
	movq	%rax, -56(%rbp)
	movq	%rdx, -64(%rbp)
	movq	-56(%rbp), %rax
	movq	-64(%rbp), %rdx
	movq	%rax, -40(%rbp)
	movq	%rdx, -48(%rbp)
	movq	-40(%rbp), %rax
	movq	-48(%rbp), %rdx
	movq	%rax, -16(%rbp)
	movq	%rdx, -24(%rbp)
	movq	-24(%rbp), %rax
	cmpq	$0, %rax
	movq	%rax, -152(%rbp)        ## 8-byte Spill
	je	LBB91_3
## BB#2:                                ##   in Loop: Header=BB91_1 Depth=1
	xorps	%xmm0, %xmm0
	movq	-152(%rbp), %rax        ## 8-byte Reload
	movq	-152(%rbp), %rcx        ## 8-byte Reload
	movsd	%xmm0, (%rcx)
	movq	%rax, -160(%rbp)        ## 8-byte Spill
LBB91_3:                                ## %_ZNSt3__116allocator_traitsINS_9allocatorIdEEE9constructIdJEEEvRS2_PT_DpOT0_.exit
                                        ##   in Loop: Header=BB91_1 Depth=1
	movq	-144(%rbp), %rax        ## 8-byte Reload
	movq	8(%rax), %rcx
	addq	$8, %rcx
	movq	%rcx, 8(%rax)
	movq	-120(%rbp), %rcx
	addq	$-1, %rcx
	movq	%rcx, -120(%rbp)
## BB#4:                                ##   in Loop: Header=BB91_1 Depth=1
	cmpq	$0, -120(%rbp)
	ja	LBB91_1
## BB#5:
	addq	$160, %rsp
	popq	%rbp
	retq
	.cfi_endproc

	.globl	__ZNSt3__113__vector_baseIdNS_9allocatorIdEEED2Ev
	.weak_def_can_be_hidden	__ZNSt3__113__vector_baseIdNS_9allocatorIdEEED2Ev
	.align	4, 0x90
__ZNSt3__113__vector_baseIdNS_9allocatorIdEEED2Ev: ## @_ZNSt3__113__vector_baseIdNS_9allocatorIdEEED2Ev
	.cfi_startproc
## BB#0:
	pushq	%rbp
Ltmp423:
	.cfi_def_cfa_offset 16
Ltmp424:
	.cfi_offset %rbp, -16
	movq	%rsp, %rbp
Ltmp425:
	.cfi_def_cfa_register %rbp
	subq	$272, %rsp              ## imm = 0x110
	movq	%rdi, -248(%rbp)
	movq	-248(%rbp), %rdi
	cmpq	$0, (%rdi)
	movq	%rdi, -256(%rbp)        ## 8-byte Spill
	je	LBB92_5
## BB#1:
	movq	-256(%rbp), %rax        ## 8-byte Reload
	movq	%rax, -240(%rbp)
	movq	-240(%rbp), %rcx
	movq	(%rcx), %rdx
	movq	%rcx, -224(%rbp)
	movq	%rdx, -232(%rbp)
	movq	-224(%rbp), %rcx
	movq	%rcx, -264(%rbp)        ## 8-byte Spill
LBB92_2:                                ## =>This Inner Loop Header: Depth=1
	movq	-232(%rbp), %rax
	movq	-264(%rbp), %rcx        ## 8-byte Reload
	cmpq	8(%rcx), %rax
	je	LBB92_4
## BB#3:                                ##   in Loop: Header=BB92_2 Depth=1
	movq	-264(%rbp), %rax        ## 8-byte Reload
	movq	%rax, -216(%rbp)
	movq	-216(%rbp), %rcx
	addq	$16, %rcx
	movq	%rcx, -208(%rbp)
	movq	-208(%rbp), %rcx
	movq	%rcx, -200(%rbp)
	movq	-200(%rbp), %rcx
	movq	8(%rax), %rdx
	addq	$-8, %rdx
	movq	%rdx, 8(%rax)
	movq	%rdx, -192(%rbp)
	movq	-192(%rbp), %rdx
	movq	%rcx, -160(%rbp)
	movq	%rdx, -168(%rbp)
	movq	-160(%rbp), %rcx
	movq	-168(%rbp), %rdx
	movq	%rcx, -144(%rbp)
	movq	%rdx, -152(%rbp)
	movq	-144(%rbp), %rcx
	movq	-152(%rbp), %rdx
	movq	%rcx, -120(%rbp)
	movq	%rdx, -128(%rbp)
	jmp	LBB92_2
LBB92_4:                                ## %_ZNSt3__113__vector_baseIdNS_9allocatorIdEEE5clearEv.exit
	movq	-256(%rbp), %rax        ## 8-byte Reload
	movq	%rax, -56(%rbp)
	movq	-56(%rbp), %rcx
	addq	$16, %rcx
	movq	%rcx, -48(%rbp)
	movq	-48(%rbp), %rcx
	movq	%rcx, -40(%rbp)
	movq	-40(%rbp), %rcx
	movq	(%rax), %rdx
	movq	%rax, -32(%rbp)
	movq	-32(%rbp), %rsi
	movq	%rsi, -24(%rbp)
	movq	-24(%rbp), %rdi
	addq	$16, %rdi
	movq	%rdi, -16(%rbp)
	movq	-16(%rbp), %rdi
	movq	%rdi, -8(%rbp)
	movq	-8(%rbp), %rdi
	movq	(%rdi), %rdi
	movq	(%rsi), %rsi
	subq	%rsi, %rdi
	sarq	$3, %rdi
	movq	%rcx, -96(%rbp)
	movq	%rdx, -104(%rbp)
	movq	%rdi, -112(%rbp)
	movq	-96(%rbp), %rcx
	movq	-104(%rbp), %rdx
	movq	-112(%rbp), %rsi
	movq	%rcx, -72(%rbp)
	movq	%rdx, -80(%rbp)
	movq	%rsi, -88(%rbp)
	movq	-80(%rbp), %rcx
	movq	%rcx, -64(%rbp)
	movq	-64(%rbp), %rdi
	callq	__ZdlPv
LBB92_5:
	addq	$272, %rsp              ## imm = 0x110
	popq	%rbp
	retq
	.cfi_endproc

	.globl	__ZNSt3__16vectorIdNS_9allocatorIdEEE19__annotate_increaseEm
	.weak_def_can_be_hidden	__ZNSt3__16vectorIdNS_9allocatorIdEEE19__annotate_increaseEm
	.align	4, 0x90
__ZNSt3__16vectorIdNS_9allocatorIdEEE19__annotate_increaseEm: ## @_ZNSt3__16vectorIdNS_9allocatorIdEEE19__annotate_increaseEm
	.cfi_startproc
## BB#0:
	pushq	%rbp
Ltmp426:
	.cfi_def_cfa_offset 16
Ltmp427:
	.cfi_offset %rbp, -16
	movq	%rsp, %rbp
Ltmp428:
	.cfi_def_cfa_register %rbp
	subq	$160, %rsp
	movq	%rdi, -128(%rbp)
	movq	%rsi, -136(%rbp)
	movq	-128(%rbp), %rsi
	movq	%rsi, -120(%rbp)
	movq	-120(%rbp), %rdi
	movq	(%rdi), %rdi
	movq	%rdi, -112(%rbp)
	movq	-112(%rbp), %rdi
	movq	%rsi, -104(%rbp)
	movq	-104(%rbp), %rax
	movq	(%rax), %rax
	movq	%rax, -96(%rbp)
	movq	-96(%rbp), %rax
	movq	%rsi, -40(%rbp)
	movq	-40(%rbp), %rcx
	movq	%rcx, -32(%rbp)
	movq	-32(%rbp), %rcx
	movq	%rcx, -24(%rbp)
	movq	-24(%rbp), %rdx
	addq	$16, %rdx
	movq	%rdx, -16(%rbp)
	movq	-16(%rbp), %rdx
	movq	%rdx, -8(%rbp)
	movq	-8(%rbp), %rdx
	movq	(%rdx), %rdx
	movq	(%rcx), %rcx
	subq	%rcx, %rdx
	sarq	$3, %rdx
	shlq	$3, %rdx
	addq	%rdx, %rax
	movq	%rsi, -56(%rbp)
	movq	-56(%rbp), %rcx
	movq	(%rcx), %rcx
	movq	%rcx, -48(%rbp)
	movq	-48(%rbp), %rcx
	movq	%rsi, -64(%rbp)
	movq	-64(%rbp), %rdx
	movq	8(%rdx), %r8
	movq	(%rdx), %rdx
	subq	%rdx, %r8
	sarq	$3, %r8
	shlq	$3, %r8
	addq	%r8, %rcx
	movq	%rsi, -80(%rbp)
	movq	-80(%rbp), %rdx
	movq	(%rdx), %rdx
	movq	%rdx, -72(%rbp)
	movq	-72(%rbp), %rdx
	movq	%rsi, -88(%rbp)
	movq	-88(%rbp), %r8
	movq	8(%r8), %r9
	movq	(%r8), %r8
	subq	%r8, %r9
	sarq	$3, %r9
	shlq	$3, %r9
	addq	%r9, %rdx
	movq	-136(%rbp), %r8
	shlq	$3, %r8
	addq	%r8, %rdx
	movq	%rdi, -144(%rbp)        ## 8-byte Spill
	movq	%rsi, %rdi
	movq	-144(%rbp), %rsi        ## 8-byte Reload
	movq	%rdx, -152(%rbp)        ## 8-byte Spill
	movq	%rax, %rdx
	movq	-152(%rbp), %r8         ## 8-byte Reload
	callq	__ZNSt3__16vectorIdNS_9allocatorIdEEE31__annotate_contiguous_containerEPKvS5_S5_S5_
	addq	$160, %rsp
	popq	%rbp
	retq
	.cfi_endproc

	.globl	__ZNSt3__16vectorIdNS_9allocatorIdEEE31__annotate_contiguous_containerEPKvS5_S5_S5_
	.weak_def_can_be_hidden	__ZNSt3__16vectorIdNS_9allocatorIdEEE31__annotate_contiguous_containerEPKvS5_S5_S5_
	.align	4, 0x90
__ZNSt3__16vectorIdNS_9allocatorIdEEE31__annotate_contiguous_containerEPKvS5_S5_S5_: ## @_ZNSt3__16vectorIdNS_9allocatorIdEEE31__annotate_contiguous_containerEPKvS5_S5_S5_
	.cfi_startproc
## BB#0:
	pushq	%rbp
Ltmp429:
	.cfi_def_cfa_offset 16
Ltmp430:
	.cfi_offset %rbp, -16
	movq	%rsp, %rbp
Ltmp431:
	.cfi_def_cfa_register %rbp
	movq	%rdi, -8(%rbp)
	movq	%rsi, -16(%rbp)
	movq	%rdx, -24(%rbp)
	movq	%rcx, -32(%rbp)
	movq	%r8, -40(%rbp)
	popq	%rbp
	retq
	.cfi_endproc

	.globl	__ZNKSt3__16vectorIdNS_9allocatorIdEEE8max_sizeEv
	.weak_def_can_be_hidden	__ZNKSt3__16vectorIdNS_9allocatorIdEEE8max_sizeEv
	.align	4, 0x90
__ZNKSt3__16vectorIdNS_9allocatorIdEEE8max_sizeEv: ## @_ZNKSt3__16vectorIdNS_9allocatorIdEEE8max_sizeEv
	.cfi_startproc
## BB#0:
	pushq	%rbp
Ltmp432:
	.cfi_def_cfa_offset 16
Ltmp433:
	.cfi_offset %rbp, -16
	movq	%rsp, %rbp
Ltmp434:
	.cfi_def_cfa_register %rbp
	subq	$56, %rsp
	leaq	-32(%rbp), %rax
	leaq	-168(%rbp), %rcx
	leaq	-160(%rbp), %rdx
	movq	$-1, %rsi
	movabsq	$2305843009213693951, %r8 ## imm = 0x1FFFFFFFFFFFFFFF
	movq	%rdi, -152(%rbp)
	movq	-152(%rbp), %rdi
	movq	%rdi, -144(%rbp)
	movq	-144(%rbp), %rdi
	addq	$16, %rdi
	movq	%rdi, -136(%rbp)
	movq	-136(%rbp), %rdi
	movq	%rdi, -128(%rbp)
	movq	-128(%rbp), %rdi
	movq	%rdi, -104(%rbp)
	movq	-104(%rbp), %rdi
	movq	%rdi, -96(%rbp)
	movq	-96(%rbp), %rdi
	movq	%rdi, -80(%rbp)
	movq	%r8, -160(%rbp)
	shrq	$1, %rsi
	movq	%rsi, -168(%rbp)
	movq	%rdx, -56(%rbp)
	movq	%rcx, -64(%rbp)
	movq	-56(%rbp), %rcx
	movq	-64(%rbp), %rdx
	movq	%rcx, -40(%rbp)
	movq	%rdx, -48(%rbp)
	movq	-48(%rbp), %rcx
	movq	-40(%rbp), %rdx
	movq	%rax, -8(%rbp)
	movq	%rcx, -16(%rbp)
	movq	%rdx, -24(%rbp)
	movq	-16(%rbp), %rax
	movq	(%rax), %rax
	movq	-24(%rbp), %rcx
	cmpq	(%rcx), %rax
	jae	LBB95_2
## BB#1:
	movq	-48(%rbp), %rax
	movq	%rax, -176(%rbp)        ## 8-byte Spill
	jmp	LBB95_3
LBB95_2:
	movq	-40(%rbp), %rax
	movq	%rax, -176(%rbp)        ## 8-byte Spill
LBB95_3:                                ## %_ZNSt3__13minImEERKT_S3_S3_.exit
	movq	-176(%rbp), %rax        ## 8-byte Reload
	movq	%rax, -184(%rbp)        ## 8-byte Spill
## BB#4:
	movq	-184(%rbp), %rax        ## 8-byte Reload
	movq	(%rax), %rax
	addq	$56, %rsp
	popq	%rbp
	retq
	.cfi_endproc

	.globl	__ZNSt3__16vectorIdNS_9allocatorIdEEE14__annotate_newEm
	.weak_def_can_be_hidden	__ZNSt3__16vectorIdNS_9allocatorIdEEE14__annotate_newEm
	.align	4, 0x90
__ZNSt3__16vectorIdNS_9allocatorIdEEE14__annotate_newEm: ## @_ZNSt3__16vectorIdNS_9allocatorIdEEE14__annotate_newEm
	.cfi_startproc
## BB#0:
	pushq	%rbp
Ltmp435:
	.cfi_def_cfa_offset 16
Ltmp436:
	.cfi_offset %rbp, -16
	movq	%rsp, %rbp
Ltmp437:
	.cfi_def_cfa_register %rbp
	subq	$176, %rsp
	movq	%rdi, -152(%rbp)
	movq	%rsi, -160(%rbp)
	movq	-152(%rbp), %rsi
	movq	%rsi, -144(%rbp)
	movq	-144(%rbp), %rdi
	movq	(%rdi), %rdi
	movq	%rdi, -136(%rbp)
	movq	-136(%rbp), %rdi
	movq	%rsi, -128(%rbp)
	movq	-128(%rbp), %rax
	movq	(%rax), %rax
	movq	%rax, -120(%rbp)
	movq	-120(%rbp), %rax
	movq	%rsi, -40(%rbp)
	movq	-40(%rbp), %rcx
	movq	%rcx, -32(%rbp)
	movq	-32(%rbp), %rcx
	movq	%rcx, -24(%rbp)
	movq	-24(%rbp), %rdx
	addq	$16, %rdx
	movq	%rdx, -16(%rbp)
	movq	-16(%rbp), %rdx
	movq	%rdx, -8(%rbp)
	movq	-8(%rbp), %rdx
	movq	(%rdx), %rdx
	movq	(%rcx), %rcx
	subq	%rcx, %rdx
	sarq	$3, %rdx
	shlq	$3, %rdx
	addq	%rdx, %rax
	movq	%rsi, -56(%rbp)
	movq	-56(%rbp), %rcx
	movq	(%rcx), %rcx
	movq	%rcx, -48(%rbp)
	movq	-48(%rbp), %rcx
	movq	%rsi, -96(%rbp)
	movq	-96(%rbp), %rdx
	movq	%rdx, -88(%rbp)
	movq	-88(%rbp), %rdx
	movq	%rdx, -80(%rbp)
	movq	-80(%rbp), %r8
	addq	$16, %r8
	movq	%r8, -72(%rbp)
	movq	-72(%rbp), %r8
	movq	%r8, -64(%rbp)
	movq	-64(%rbp), %r8
	movq	(%r8), %r8
	movq	(%rdx), %rdx
	subq	%rdx, %r8
	sarq	$3, %r8
	shlq	$3, %r8
	addq	%r8, %rcx
	movq	%rsi, -112(%rbp)
	movq	-112(%rbp), %rdx
	movq	(%rdx), %rdx
	movq	%rdx, -104(%rbp)
	movq	-104(%rbp), %rdx
	movq	-160(%rbp), %r8
	shlq	$3, %r8
	addq	%r8, %rdx
	movq	%rdi, -168(%rbp)        ## 8-byte Spill
	movq	%rsi, %rdi
	movq	-168(%rbp), %rsi        ## 8-byte Reload
	movq	%rdx, -176(%rbp)        ## 8-byte Spill
	movq	%rax, %rdx
	movq	-176(%rbp), %r8         ## 8-byte Reload
	callq	__ZNSt3__16vectorIdNS_9allocatorIdEEE31__annotate_contiguous_containerEPKvS5_S5_S5_
	addq	$176, %rsp
	popq	%rbp
	retq
	.cfi_endproc

	.section	__TEXT,__text,regular,pure_instructions
__ZN4armaL9arma_stopIPKcEEvRKT_:        ## @_ZN4armaL9arma_stopIPKcEEvRKT_
	.cfi_startproc
	.cfi_personality 155, ___gxx_personality_v0
Leh_func_begin97:
	.cfi_lsda 16, Lexception97
## BB#0:
	pushq	%rbp
Ltmp448:
	.cfi_def_cfa_offset 16
Ltmp449:
	.cfi_offset %rbp, -16
	movq	%rsp, %rbp
Ltmp450:
	.cfi_def_cfa_register %rbp
	subq	$208, %rsp
	movq	%rdi, -80(%rbp)
	callq	__ZN4arma15get_stream_err1Ev
	movq	%rax, -88(%rbp)
	movl	$10, %ecx
	movq	%rax, %rdi
	movl	%ecx, %esi
	movl	%ecx, -132(%rbp)        ## 4-byte Spill
	callq	__ZNSt3__1lsINS_11char_traitsIcEEEERNS_13basic_ostreamIcT_EES6_c
	movq	-88(%rbp), %rdi
	leaq	L_.str33(%rip), %rsi
	movq	%rax, -144(%rbp)        ## 8-byte Spill
	callq	__ZNSt3__1lsINS_11char_traitsIcEEEERNS_13basic_ostreamIcT_EES6_PKc
	movq	-80(%rbp), %rsi
	movq	(%rsi), %rsi
	movq	%rax, %rdi
	callq	__ZNSt3__1lsINS_11char_traitsIcEEEERNS_13basic_ostreamIcT_EES6_PKc
	movq	%rax, %rdi
	movl	-132(%rbp), %esi        ## 4-byte Reload
	callq	__ZNSt3__1lsINS_11char_traitsIcEEEERNS_13basic_ostreamIcT_EES6_c
	movq	-88(%rbp), %rdi
	movl	-132(%rbp), %esi        ## 4-byte Reload
	movq	%rax, -152(%rbp)        ## 8-byte Spill
	callq	__ZNSt3__1lsINS_11char_traitsIcEEEERNS_13basic_ostreamIcT_EES6_c
	movq	-88(%rbp), %rdi
	movq	%rax, -160(%rbp)        ## 8-byte Spill
	callq	__ZNSt3__113basic_ostreamIcNS_11char_traitsIcEEE5flushEv
	movl	$16, %ecx
	movl	%ecx, %edi
	movq	%rax, -168(%rbp)        ## 8-byte Spill
	callq	___cxa_allocate_exception
	movq	%rax, %rdi
	movb	$1, -125(%rbp)
	movq	-80(%rbp), %rdx
	movq	(%rdx), %rdx
	leaq	-112(%rbp), %r8
	movq	%r8, -64(%rbp)
	movq	%rdx, -72(%rbp)
	movq	-64(%rbp), %r8
	movq	%r8, -48(%rbp)
	movq	%rdx, -56(%rbp)
	movq	-48(%rbp), %rdx
	movq	%rdx, -40(%rbp)
	movq	%rdx, -32(%rbp)
	movq	%rdx, -24(%rbp)
	movq	%rdx, -16(%rbp)
	movq	-56(%rbp), %r8
	movq	%r8, -8(%rbp)
Ltmp438:
	movq	%rdi, -176(%rbp)        ## 8-byte Spill
	movq	%r8, %rdi
	movq	%r8, -184(%rbp)         ## 8-byte Spill
	movq	%rax, -192(%rbp)        ## 8-byte Spill
	movq	%rdx, -200(%rbp)        ## 8-byte Spill
	callq	_strlen
Ltmp439:
	movq	%rax, -208(%rbp)        ## 8-byte Spill
	jmp	LBB97_1
LBB97_1:                                ## %.noexc
Ltmp440:
	movq	-200(%rbp), %rdi        ## 8-byte Reload
	movq	-184(%rbp), %rsi        ## 8-byte Reload
	movq	-208(%rbp), %rdx        ## 8-byte Reload
	callq	__ZNSt3__112basic_stringIcNS_11char_traitsIcEENS_9allocatorIcEEE6__initEPKcm
Ltmp441:
	jmp	LBB97_2
LBB97_2:                                ## %_ZNSt3__112basic_stringIcNS_11char_traitsIcEENS_9allocatorIcEEEC1EPKc.exit
	jmp	LBB97_3
LBB97_3:
Ltmp443:
	leaq	-112(%rbp), %rsi
	movq	-192(%rbp), %rdi        ## 8-byte Reload
	callq	__ZNSt11logic_errorC1ERKNSt3__112basic_stringIcNS0_11char_traitsIcEENS0_9allocatorIcEEEE
Ltmp444:
	jmp	LBB97_4
LBB97_4:
	movb	$0, -125(%rbp)
Ltmp445:
	movq	__ZTISt11logic_error@GOTPCREL(%rip), %rsi
	movq	__ZNSt11logic_errorD1Ev@GOTPCREL(%rip), %rdx
	movq	-176(%rbp), %rdi        ## 8-byte Reload
	callq	___cxa_throw
Ltmp446:
	jmp	LBB97_11
LBB97_5:
Ltmp442:
	movl	%edx, %ecx
	movq	%rax, -120(%rbp)
	movl	%ecx, -124(%rbp)
	jmp	LBB97_7
LBB97_6:
Ltmp447:
	leaq	-112(%rbp), %rdi
	movl	%edx, %ecx
	movq	%rax, -120(%rbp)
	movl	%ecx, -124(%rbp)
	callq	__ZNSt3__112basic_stringIcNS_11char_traitsIcEENS_9allocatorIcEEED1Ev
LBB97_7:
	testb	$1, -125(%rbp)
	jne	LBB97_8
	jmp	LBB97_9
LBB97_8:
